(lp0
(lp1
F35.5003547668457
aF37.50034713745117
aF39.50033950805664
aF41.50033187866211
aF43.50033187866211
aF45.50032424926758
aF47.50031661987305
aF49.500308990478516
aF51.500301361083984
aF53.50029373168945
aF55.50029373168945
aF57.50028610229492
aF59.50027847290039
aF61.50027084350586
aF63.50026321411133
aF65.50025939941406
aF67.50025177001953
aF69.500244140625
aF71.50023651123047
aF73.50022888183594
aF75.50022888183594
aF77.5002212524414
aF79.50021362304688
aF81.50020599365234
aF83.50019836425781
aF85.50019073486328
aF87.50019073486328
aF89.50018310546875
aF91.50017547607422
aF93.50016784667969
aF95.50016784667969
aF97.50015258789062
aF99.50015258789062
aF101.5001449584961
aF103.50013732910156
aF105.50013732910156
aF107.5001220703125
aF109.5001220703125
aF111.50011444091797
aF113.50010681152344
aF115.5000991821289
aF117.50009155273438
aF119.50009155273438
aF121.50008392333984
aF123.50007629394531
aF125.50006866455078
aF127.50006103515625
aF129.5000762939453
aF131.50006103515625
aF133.50006103515625
aF135.5000457763672
aF137.5000457763672
aF139.5000457763672
aF141.50003051757812
aF143.50003051757812
aF145.50001525878906
aF147.50001525878906
aF149.50001525878906
aF151.5
aF153.5
aF155.51829528808594
aF157.5508270263672
aF159.58212280273438
aF161.61146545410156
aF163.63815307617188
aF165.66140747070312
aF167.6805877685547
aF169.69488525390625
aF171.70364379882812
aF173.70611572265625
aF175.70162963867188
aF177.6894073486328
aF179.6687774658203
aF181.6390380859375
aF183.59947204589844
aF185.5493621826172
aF187.48805236816406
aF189.41482543945312
aF191.32901000976562
aF193.2299041748047
aF195.11685180664062
aF196.98912048339844
aF198.84613037109375
aF200.68716430664062
aF202.5115509033203
aF204.31869506835938
aF206.10791015625
aF207.87855529785156
aF209.63003540039062
aF211.3616943359375
aF213.0874786376953
aF214.77378845214844
aF216.4171905517578
aF218.0156707763672
aF219.56724548339844
aF221.06996154785156
aF222.52197265625
aF223.92144775390625
aF225.2666473388672
aF226.55592346191406
aF227.78765869140625
aF228.9602813720703
aF230.07240295410156
aF231.12258911132812
aF232.1095428466797
aF233.03204345703125
aF233.88894653320312
aF234.6791534423828
aF235.4017333984375
aF236.05575561523438
aF236.6404266357422
aF237.15496826171875
aF237.59878540039062
aF237.9713134765625
aF238.2720947265625
aF238.50076293945312
aF238.65701293945312
aF238.74063110351562
aF238.7892608642578
aF238.837890625
aF238.8865203857422
aF238.93515014648438
aF238.98377990722656
aF239.0323944091797
aF239.08102416992188
aF239.12965393066406
aF239.17828369140625
aF239.22691345214844
aF239.27554321289062
aF239.32415771484375
aF239.37278747558594
aF239.42141723632812
aF239.4700469970703
aF239.5186767578125
aF239.5673065185547
aF239.6159210205078
aF239.66455078125
aF239.7131805419922
aF239.76181030273438
aF239.81044006347656
aF239.85906982421875
aF239.90769958496094
aF239.95631408691406
aF240.00494384765625
aF240.05357360839844
aF240.10220336914062
aF240.1508331298828
aF240.19944763183594
aF240.24221801757812
aF240.10133361816406
aF239.69586181640625
aF239.03167724609375
aF238.11849975585938
aF236.96957397460938
aF235.60165405273438
aF234.0332794189453
aF232.28643798828125
aF230.38748168945312
aF228.3646240234375
aF226.24789428710938
aF224.06875610351562
aF221.8729705810547
aF219.87281799316406
aF217.87281799316406
aF215.87281799316406
aF213.87283325195312
aF211.87283325195312
aF209.8728485107422
aF207.8728485107422
aF205.87286376953125
aF203.87286376953125
aF201.8728790283203
aF199.8728790283203
aF197.8728790283203
aF195.87289428710938
aF193.87289428710938
aF191.87290954589844
aF189.87290954589844
aF187.87290954589844
aF185.8729248046875
aF183.72108459472656
aF181.54090881347656
aF179.41441345214844
aF177.37106323242188
aF175.43911743164062
aF173.6453399658203
aF172.0102996826172
aF170.5692596435547
aF169.35951232910156
aF168.4013671875
aF167.71092224121094
aF167.2997283935547
aF167.1741180419922
aF167.1744842529297
aF167.1748504638672
aF167.17523193359375
aF167.17562866210938
aF167.17599487304688
aF167.17637634277344
aF167.17674255371094
aF167.16725158691406
aF167.07583618164062
aF166.88824462890625
aF166.60496520996094
aF166.22671508789062
aF165.75445556640625
aF165.18939208984375
aF164.53297424316406
aF163.78683471679688
aF162.9529266357422
aF162.0333251953125
aF161.03041076660156
aF159.94668579101562
aF158.78494262695312
aF157.54812622070312
aF156.23976135253906
aF154.86289978027344
aF153.41925048828125
aF151.91270446777344
aF150.3473358154297
aF148.72735595703125
aF147.05714416503906
aF145.34121704101562
aF143.58416748046875
aF141.790771484375
aF139.96583557128906
aF138.11428833007812
aF136.2411346435547
aF134.35142517089844
aF132.4502410888672
aF130.538818359375
aF128.53903198242188
aF126.53923034667969
aF124.53943634033203
aF122.53964233398438
aF120.53984069824219
aF118.54004669189453
aF116.54025268554688
aF114.54045104980469
aF112.54065704345703
aF110.54086303710938
aF108.54106140136719
aF106.54126739501953
aF104.54147338867188
aF102.54167175292969
aF100.54187774658203
aF98.54208374023438
aF96.54228210449219
aF94.54248809814453
aF92.54269409179688
aF90.54289245605469
aF88.54309844970703
aF86.54330444335938
aF84.54351043701172
aF82.54370880126953
aF80.54391479492188
aF78.54412078857422
aF76.54431915283203
aF74.54452514648438
aF72.54473114013672
aF70.54492950439453
aF68.54513549804688
aF66.54534149169922
aF64.54553985595703
aF62.54574203491211
aF60.54594039916992
aF58.546146392822266
aF56.54635238647461
aF54.54655075073242
aF52.546756744384766
aF50.54696273803711
aF48.54716491699219
aF46.547367095947266
aF44.54757308959961
aF42.54777526855469
aF40.547977447509766
aF38.54818344116211
aF36.54838562011719
aF34.548587799072266
aF32.54879379272461
aF30.548995971679688
aF28.549198150634766
aF26.549402236938477
aF24.549606323242188
aF22.549808502197266
aF20.55001449584961
aF18.550216674804688
aF16.5504207611084
aF14.550623893737793
aF12.507245063781738
aF10.420136451721191
aF8.343091011047363
aF6.2818284034729
aF4.242024898529053
aF2.229297161102295
aF0.14724677801132202
aF-1.9139976501464844
aF-3.634082317352295
aF-4.919860363006592
aF-5.701704978942871
aF-5.938164710998535
aF-5.925509452819824
aF-5.91285514831543
aF-5.900199890136719
aF-5.887545585632324
aF-5.874890327453613
aF-5.862236022949219
aF-5.849580764770508
aF-5.836926460266113
aF-5.824271202087402
aF-5.811616897583008
aF-5.798961639404297
aF-5.786307334899902
aF-5.773652076721191
aF-5.760997772216797
aF-5.748342990875244
aF-5.735688209533691
aF-5.723033428192139
aF-5.710378646850586
aF-5.697723865509033
aF-5.6850690841674805
aF-5.672414779663086
aF-5.659759521484375
aF-5.6471052169799805
aF-5.6344499588012695
aF-5.820002555847168
aF-6.41007137298584
aF-7.359170913696289
aF-8.652798652648926
aF-10.137804985046387
aF-11.728437423706055
aF-13.559468269348145
aF-15.559462547302246
aF-17.5594539642334
aF-19.5594482421875
aF-21.559337615966797
aF-23.559329986572266
aF-25.559324264526367
aF-27.55931854248047
aF-29.559310913085938
aF-31.55930519104004
aF-33.55929946899414
aF-35.559295654296875
aF-37.559288024902344
aF-39.55928039550781
aF-41.55927658081055
aF-43.314579010009766
aF-45.043338775634766
aF-46.76375961303711
aF-48.47139358520508
aF-50.161827087402344
aF-51.83069610595703
aF-53.473690032958984
aF-55.08655548095703
aF-56.665138244628906
aF-58.20534896850586
aF-59.703216552734375
aF-61.154869079589844
aF-62.55655288696289
aF-63.90464782714844
aF-65.1956787109375
aF-66.42630004882812
aF-67.59539794921875
aF-68.73438262939453
aF-69.8155746459961
aF-70.83711242675781
aF-71.7972412109375
aF-72.6943130493164
aF-73.52679443359375
aF-74.2932357788086
aF-74.99234008789062
aF-75.62289428710938
aF-76.18380737304688
aF-76.67414093017578
aF-77.093017578125
aF-77.43975067138672
aF-77.71372985839844
aF-77.91447448730469
aF-78.04166412353516
aF-78.09506225585938
aF-78.10301971435547
aF-78.11042785644531
aF-78.11783599853516
aF-78.12525177001953
aF-78.13265991210938
aF-78.14007568359375
aF-78.14749145507812
aF-78.15296173095703
aF-78.12744903564453
aF-78.06122589111328
aF-77.9543228149414
aF-77.80766296386719
aF-77.67393493652344
aF-77.58186340332031
aF-77.53150177001953
aF-77.52230834960938
aF-77.52775573730469
aF-77.53321075439453
aF-77.5386734008789
aF-77.54412841796875
aF-77.5495834350586
aF-77.55503845214844
aF-77.56049346923828
aF-77.56594848632812
aF-77.57140350341797
aF-77.57685089111328
aF-77.58230590820312
aF-77.58776092529297
aF-77.59321594238281
aF-77.59867095947266
aF-77.6041259765625
aF-77.60958099365234
aF-77.61503601074219
aF-77.62049102783203
aF-77.62594604492188
aF-77.63140106201172
aF-77.63685607910156
aF-77.6423110961914
aF-77.64776611328125
aF-77.6532211303711
aF-77.6586685180664
aF-77.66412353515625
aF-77.6695785522461
aF-77.67503356933594
aF-77.68048858642578
aF-77.68594360351562
aF-77.69139862060547
aF-77.69685363769531
aF-77.70230865478516
aF-77.707763671875
aF-77.71321868896484
aF-77.71867370605469
aF-77.72412872314453
aF-77.72958374023438
aF-77.73503875732422
aF-77.74048614501953
aF-77.74594116210938
aF-77.75139617919922
aF-77.75685119628906
aF-77.7623062133789
aF-77.76776123046875
aF-77.7732162475586
aF-77.77867126464844
aF-77.78412628173828
aF-77.7895736694336
aF-77.79502868652344
aF-77.80048370361328
aF-77.80593872070312
aF-77.81139373779297
aF-77.81684875488281
aF-77.82230377197266
aF-77.8277587890625
aF-78.09819030761719
aF-80.1166000366211
aF-83.22709655761719
aF-85.6249008178711
aF-87.33480834960938
aF-89.06904602050781
aF-90.80328369140625
aF-92.47891998291016
aF-94.09196472167969
aF-95.63856506347656
aF-97.09844207763672
aF-98.50465393066406
aF-99.91087341308594
aF-101.31708526611328
aF-102.7232894897461
aF-104.12950897216797
aF-105.53572082519531
aF-106.94194030761719
aF-108.34815216064453
aF-109.75436401367188
aF-111.16058349609375
aF-112.5667953491211
aF-113.97301483154297
aF-115.37922668457031
aF-116.78544616699219
aF-118.19165802001953
aF-119.59786987304688
aF-121.00408935546875
aF-122.4103012084961
aF-123.81651306152344
aF-125.22273254394531
aF-126.62894439697266
aF-128.0473175048828
aF-129.50489807128906
aF-130.9912567138672
aF-132.50576782226562
aF-134.04783630371094
aF-135.61676025390625
aF-137.2119140625
aF-138.83262634277344
aF-140.47821044921875
aF-142.13235473632812
aF-143.55162048339844
aF-144.83804321289062
aF-145.9756317138672
aF-146.95018005371094
aF-147.74957275390625
aF-148.3638916015625
aF-148.78543090820312
aF-149.00897216796875
aF-149.0472412109375
aF-149.04827880859375
aF-149.04931640625
aF-149.0503692626953
aF-149.05140686035156
aF-149.0524444580078
aF-149.05348205566406
aF-149.05453491210938
aF-149.05557250976562
aF-149.05661010742188
aF-149.0576629638672
aF-149.05870056152344
aF-149.0597381591797
aF-149.060791015625
aF-149.06182861328125
aF-149.0628662109375
aF-149.06390380859375
aF-149.0334930419922
aF-148.86915588378906
aF-148.5636749267578
aF-148.1184539794922
aF-147.53550720214844
aF-146.81739807128906
aF-145.9674072265625
aF-144.98936462402344
aF-143.8876495361328
aF-142.66720581054688
aF-141.33067321777344
aF-139.8485107421875
aF-138.23765563964844
aF-136.5100860595703
aF-134.67864990234375
aF-132.75694274902344
aF-130.75929260253906
aF-128.7005157470703
aF-126.59593200683594
aF-124.461181640625
aF-122.31214904785156
aF-120.28897857666016
aF-118.28948974609375
aF-116.29000091552734
aF-114.29051208496094
aF-112.29102325439453
aF-110.29154205322266
aF-108.29205322265625
aF-106.29256439208984
aF-104.29307556152344
aF-102.29358673095703
aF-100.29409790039062
aF-98.29460906982422
aF-96.29512023925781
aF-94.24514770507812
aF-92.12818145751953
aF-90.02992248535156
aF-87.96112060546875
aF-85.93242645263672
aF-83.95426177978516
aF-81.88941192626953
aF-80.10802459716797
aF-78.74343872070312
aF-77.86853790283203
aF-77.5300521850586
aF-77.53144836425781
aF-77.53691101074219
aF-77.54236602783203
aF-77.54782104492188
aF-77.55327606201172
aF-77.55873107910156
aF-77.56417846679688
aF-77.56963348388672
aF-77.57508850097656
aF-77.5805435180664
aF-77.58599853515625
aF-77.5914535522461
aF-77.59690856933594
aF-77.60236358642578
aF-77.60781860351562
aF-77.61327362060547
aF-77.61872863769531
aF-77.62418365478516
aF-77.629638671875
aF-77.63509368896484
aF-77.64054870605469
aF-77.64599609375
aF-77.65145111083984
aF-77.65690612792969
aF-77.66236114501953
aF-77.66781616210938
aF-77.67327117919922
aF-77.67872619628906
aF-77.6841812133789
aF-77.68963623046875
aF-77.6950912475586
aF-77.70054626464844
aF-77.70600128173828
aF-77.71145629882812
aF-77.71691131591797
aF-77.72236633300781
aF-77.72781372070312
aF-77.73326873779297
aF-77.73872375488281
aF-77.74417877197266
aF-77.7496337890625
aF-77.75508880615234
aF-77.76054382324219
aF-77.76599884033203
aF-77.77145385742188
aF-77.77690887451172
aF-77.78236389160156
aF-77.78781127929688
aF-77.79326629638672
aF-77.79872131347656
aF-77.8041763305664
aF-77.80963134765625
aF-77.8150863647461
aF-77.82054138183594
aF-77.82599639892578
aF-77.83145141601562
aF-77.83690643310547
aF-77.84236145019531
aF-77.84781646728516
aF-77.85326385498047
aF-77.85871887207031
aF-77.86417388916016
aF-77.86962890625
aF-77.87508392333984
aF-77.88053894042969
aF-77.88599395751953
aF-77.89144897460938
aF-77.89690399169922
aF-77.90235900878906
aF-77.9078140258789
aF-77.91326904296875
aF-77.9187240600586
aF-77.92417907714844
aF-77.92963409423828
aF-77.93508911132812
aF-77.94054412841797
aF-77.94599914550781
aF-77.95145416259766
aF-77.9569091796875
aF-77.96236419677734
aF-77.96781921386719
aF-77.9732666015625
aF-77.97872161865234
aF-77.98417663574219
aF-77.98963165283203
aF-77.99508666992188
aF-78.00054168701172
aF-78.00599670410156
aF-78.0114517211914
aF-78.01690673828125
aF-78.0223617553711
aF-78.02781677246094
aF-78.03327178955078
aF-78.03872680664062
aF-78.04418182373047
aF-78.04963684082031
aF-78.05508422851562
aF-78.06053924560547
aF-78.06599426269531
aF-78.07144927978516
aF-78.076904296875
aF-78.08235931396484
aF-78.08781433105469
aF-78.09326934814453
aF-78.09872436523438
aF-78.10417938232422
aF-78.10963439941406
aF-78.1150894165039
aF-78.12054443359375
aF-78.1259994506836
aF-78.13145446777344
aF-78.13690185546875
aF-78.1423568725586
aF-78.14781188964844
aF-78.15326690673828
aF-78.15872192382812
aF-78.16417694091797
aF-78.16963195800781
aF-78.17508697509766
aF-78.1805419921875
aF-78.18599700927734
aF-78.19145202636719
aF-78.19690704345703
aF-78.20236206054688
aF-78.20781707763672
aF-78.21326446533203
aF-78.21871948242188
aF-78.22417449951172
aF-78.22962188720703
aF-78.23046875
aF-78.22332763671875
aF-78.20824432373047
aF-78.1851577758789
aF-78.15410614013672
aF-78.1150894165039
aF-78.0681381225586
aF-78.01318359375
aF-77.95023345947266
aF-77.87934875488281
aF-77.80049896240234
aF-77.71370697021484
aF-77.61890411376953
aF-77.51615142822266
aF-77.40545654296875
aF-77.29136657714844
aF-77.17727661132812
aF-77.06318664550781
aF-76.9490966796875
aF-76.83500671386719
aF-76.71234130859375
aF-76.48095703125
aF-76.11398315429688
aF-75.6134033203125
aF-74.98192596435547
aF-74.22294616699219
aF-73.3405532836914
aF-72.33950805664062
aF-71.2251968383789
aF-70.00361633300781
aF-68.68136596679688
aF-67.26556396484375
aF-65.76383972167969
aF-64.18428802490234
aF-62.5354118347168
aF-60.82609939575195
aF-59.0655632019043
aF-57.26329040527344
aF-55.42898941040039
aF-53.57254409790039
aF-51.70396423339844
aF-49.77468490600586
aF-47.77531433105469
aF-45.77594757080078
aF-43.77657699584961
aF-41.7772102355957
aF-39.77783966064453
aF-37.77846908569336
aF-35.77910232543945
aF-33.77973556518555
aF-31.780363082885742
aF-29.780994415283203
aF-27.781625747680664
aF-25.782257080078125
aF-23.782888412475586
aF-21.783519744873047
aF-19.784151077270508
aF-17.78478240966797
aF-15.785414695739746
aF-13.786046028137207
aF-11.786676406860352
aF-9.787307739257812
aF-7.787939071655273
aF-5.788570404052734
aF-3.789201259613037
aF-1.7898327112197876
aF0.20953595638275146
aF2.20890474319458
aF4.208272933959961
aF6.2076416015625
aF8.207010269165039
aF10.206378936767578
aF12.205748558044434
aF14.205116271972656
aF16.20448875427246
aF18.203855514526367
aF20.20322608947754
aF22.202592849731445
aF24.20195960998535
aF26.201330184936523
aF28.20069694519043
aF30.2000675201416
aF32.199432373046875
aF34.19880294799805
aF36.19817352294922
aF38.197540283203125
aF40.1969108581543
aF42.1962776184082
aF44.19564437866211
aF46.19501495361328
aF48.19438552856445
aF50.19375228881836
aF52.193119049072266
aF54.1924934387207
aF56.19186019897461
aF58.191226959228516
aF60.19059753417969
aF62.18996810913086
aF64.18933868408203
aF66.18870544433594
aF68.18807983398438
aF70.18744659423828
aF72.18681335449219
aF74.1861801147461
aF76.185546875
aF78.18492126464844
aF80.18428802490234
aF82.18365478515625
aF84.18302154541016
aF86.1823959350586
aF88.1817626953125
aF90.1811294555664
aF92.18049621582031
aF94.17987060546875
aF96.17923736572266
aF98.17861938476562
aF100.17798614501953
aF102.17735290527344
aF104.17672729492188
aF106.17608642578125
aF108.17546081542969
aF110.1748275756836
aF112.1741943359375
aF114.17356872558594
aF116.17293548583984
aF118.17230224609375
aF120.17167663574219
aF122.1710433959961
aF124.17041015625
aF126.1697769165039
aF128.16912841796875
aF130.1685028076172
aF132.16787719726562
aF134.167236328125
aF136.16661071777344
aF138.1659698486328
aF140.16534423828125
aF142.1647186279297
aF144.16407775878906
aF146.28073120117188
aF148.4521484375
aF150.5906219482422
aF152.6730499267578
aF154.58642578125
aF156.30516052246094
aF158.07650756835938
aF159.8834228515625
aF161.70858764648438
aF163.70166015625
aF165.70166015625
aF167.70166015625
aF169.70166015625
aF171.70166015625
aF173.70166015625
aF175.70166015625
aF177.70166015625
aF179.70166015625
aF181.70166015625
aF183.70166015625
aF185.70166015625
aF187.70166015625
aF189.70166015625
aF191.70166015625
aF193.70166015625
aF195.70166015625
aF197.70166015625
aF199.58966064453125
aF201.31809997558594
aF203.04010009765625
aF204.75112915039062
aF206.4466552734375
aF208.1222381591797
aF209.77345275878906
aF211.3959503173828
aF212.9854736328125
aF214.5377960205078
aF216.04888916015625
aF217.5147247314453
aF218.93145751953125
aF220.2953643798828
aF221.6028289794922
aF222.85044860839844
aF224.03489685058594
aF225.153076171875
aF226.20204162597656
aF227.17901611328125
aF228.08145141601562
aF228.9295196533203
aF229.78065490722656
aF230.59420776367188
aF231.36976623535156
aF232.10696411132812
aF232.80538940429688
aF233.46473693847656
aF234.08465576171875
aF234.6648712158203
aF235.20504760742188
aF235.70494079589844
aF236.16432189941406
aF236.58294677734375
aF236.96060180664062
aF237.297119140625
aF237.59231567382812
aF237.84605407714844
aF238.0581817626953
aF238.22862243652344
aF238.3572998046875
aF238.44412231445312
aF238.48907470703125
aF238.49209594726562
aF238.4546356201172
aF238.40602111816406
aF238.35739135742188
aF238.3087615966797
aF238.2601318359375
aF238.2115020751953
aF238.16287231445312
aF238.11424255371094
aF238.0656280517578
aF238.01699829101562
aF237.96836853027344
aF237.91973876953125
aF237.87110900878906
aF237.82247924804688
aF237.77386474609375
aF237.72523498535156
aF237.67660522460938
aF237.6279754638672
aF237.579345703125
aF237.5307159423828
aF237.4821014404297
aF237.4334716796875
aF237.3848419189453
aF237.33621215820312
aF237.28758239746094
aF237.23895263671875
aF237.19032287597656
aF237.14170837402344
aF237.09307861328125
aF237.04444885253906
aF236.99581909179688
aF236.9471893310547
aF236.8985595703125
aF236.84994506835938
aF236.8013153076172
aF236.752685546875
aF236.7040557861328
aF236.65542602539062
aF236.60679626464844
aF236.5581817626953
aF236.50955200195312
aF236.46092224121094
aF236.41229248046875
aF236.36366271972656
aF236.31503295898438
aF236.2664031982422
aF236.21778869628906
aF236.16915893554688
aF236.1205291748047
aF236.0718994140625
aF236.0232696533203
aF235.97463989257812
aF235.926025390625
aF235.8773956298828
aF235.82876586914062
aF235.78013610839844
aF235.73150634765625
aF235.68287658691406
aF235.63424682617188
aF235.58563232421875
aF235.53700256347656
aF235.48837280273438
aF235.4397430419922
aF235.39111328125
aF235.3424835205078
aF235.29385375976562
aF235.24522399902344
aF235.1966094970703
aF235.14797973632812
aF235.09934997558594
aF235.05072021484375
aF235.00209045410156
aF234.95346069335938
aF234.9048309326172
aF234.856201171875
aF234.8075714111328
aF234.75894165039062
aF234.7103271484375
aF234.6616973876953
aF234.6130828857422
aF234.564453125
aF234.5158233642578
aF234.46719360351562
aF234.41856384277344
aF234.36993408203125
aF234.32130432128906
aF234.27268981933594
aF234.22406005859375
aF234.17543029785156
aF234.12680053710938
aF234.0781707763672
aF234.02955627441406
aF233.98092651367188
aF233.9322967529297
aF233.8836669921875
aF233.8350372314453
aF233.7864227294922
aF233.73779296875
aa(lp2
F203.9425048828125
aF203.93751525878906
aF203.93252563476562
aF203.9275360107422
aF203.92254638671875
aF203.9175567626953
aF203.91256713867188
aF203.90757751464844
aF203.902587890625
aF203.89759826660156
aF203.89260864257812
aF203.8876190185547
aF203.88262939453125
aF203.8776397705078
aF203.87265014648438
aF203.86766052246094
aF203.8626708984375
aF203.857666015625
aF203.85267639160156
aF203.84768676757812
aF203.8426971435547
aF203.83770751953125
aF203.8327178955078
aF203.82772827148438
aF203.82273864746094
aF203.8177490234375
aF203.81275939941406
aF203.80776977539062
aF203.8027801513672
aF203.79779052734375
aF203.7928009033203
aF203.78781127929688
aF203.78282165527344
aF203.77783203125
aF203.77284240722656
aF203.76785278320312
aF203.7628631591797
aF203.75787353515625
aF203.75286865234375
aF203.7478790283203
aF203.74288940429688
aF203.73789978027344
aF203.73291015625
aF203.72792053222656
aF203.72293090820312
aF203.7179412841797
aF203.71295166015625
aF203.7079620361328
aF203.70297241210938
aF203.69798278808594
aF203.6929931640625
aF203.68800354003906
aF203.68301391601562
aF203.6780242919922
aF203.67303466796875
aF203.6680450439453
aF203.66305541992188
aF203.65806579589844
aF203.65306091308594
aF203.6480712890625
aF203.63711547851562
aF203.5915069580078
aF203.5075225830078
aF203.3851318359375
aF203.22447204589844
aF203.0255126953125
aF202.78839111328125
aF202.51315307617188
aF202.19992065429688
aF201.84878540039062
aF201.45986938476562
aF201.03330993652344
aF200.56932067871094
aF200.06797790527344
aF199.5294952392578
aF198.95408630371094
aF198.3419647216797
aF197.69329833984375
aF197.00833129882812
aF196.28733825683594
aF195.5305633544922
aF194.73828125
aF193.91075134277344
aF193.04827880859375
aF192.1511993408203
aF191.2198028564453
aF190.2544403076172
aF189.2554168701172
aF188.22314453125
aF187.15797424316406
aF186.0328826904297
aF184.84683227539062
aF183.60203552246094
aF182.300048828125
aF180.9425048828125
aF179.53106689453125
aF178.0675048828125
aF176.5536346435547
aF174.99134826660156
aF173.38259887695312
aF171.7293701171875
aF170.03372192382812
aF168.29776000976562
aF166.52366638183594
aF164.713623046875
aF162.86988830566406
aF160.9947967529297
aF159.0906219482422
aF157.15975952148438
aF155.20460510253906
aF153.22763061523438
aF151.23123168945312
aF149.2179412841797
aF147.1902618408203
aF145.15069580078125
aF143.10177612304688
aF141.0460662841797
aF138.988525390625
aF136.98912048339844
aF134.98971557617188
aF132.99029541015625
aF130.9908905029297
aF128.99148559570312
aF126.9920883178711
aF124.99267578125
aF122.9932632446289
aF120.99385833740234
aF118.99445343017578
aF116.99504089355469
aF114.9956283569336
aF112.99622344970703
aF110.99681854248047
aF108.99740600585938
aF106.99799346923828
aF104.99858856201172
aF102.99918365478516
aF100.99977111816406
aF99.00035858154297
aF97.0009536743164
aF95.00154876708984
aF93.00213623046875
aF91.00272369384766
aF89.0033187866211
aF87.00391387939453
aF85.00450134277344
aF83.00508880615234
aF81.00568389892578
aF79.00627899169922
aF76.95848083496094
aF74.75303649902344
aF72.58061981201172
aF70.47284698486328
aF68.46040344238281
aF66.57260131835938
aF64.8369140625
aF63.278072357177734
aF61.92097473144531
aF60.786460876464844
aF59.891380310058594
aF59.249027252197266
aF58.86894607543945
aF58.75620651245117
aF58.761356353759766
aF58.76649856567383
aF58.771644592285156
aF58.776790618896484
aF58.78193664550781
aF58.78708267211914
aF58.7922248840332
aF58.79737091064453
aF58.80251693725586
aF58.80766296386719
aF58.812808990478516
aF58.81795120239258
aF58.823097229003906
aF58.828243255615234
aF58.83338928222656
aF58.83853530883789
aF58.84367752075195
aF58.84882354736328
aF58.9270133972168
aF59.25548553466797
aF59.8377799987793
aF60.665836334228516
aF61.72819137573242
aF63.010135650634766
aF64.50072479248047
aF66.19641876220703
aF68.06417083740234
aF70.07264709472656
aF72.18812561035156
aF74.37511444091797
aF76.58216857910156
aF78.58270263671875
aF80.58270263671875
aF82.58270263671875
aF84.58270263671875
aF86.58270263671875
aF88.58270263671875
aF90.58270263671875
aF92.54271697998047
aF94.45203399658203
aF96.35431671142578
aF98.2447280883789
aF100.11843872070312
aF101.97069549560547
aF103.7967758178711
aF105.592041015625
aF107.35192108154297
aF109.07193756103516
aF110.74771118164062
aF112.3749771118164
aF113.9496078491211
aF115.46756744384766
aF116.9250259399414
aF118.31779479980469
aF119.63994598388672
aF120.88884735107422
aF122.06111907958984
aF123.1535873413086
aF124.16331481933594
aF125.08759307861328
aF125.92391967773438
aF126.67002868652344
aF127.32391357421875
aF127.88381958007812
aF128.3482208251953
aF128.71588134765625
aF128.98580932617188
aF129.15725708007812
aF129.22991943359375
aF129.25843811035156
aF129.28697204589844
aF129.31549072265625
aF129.34402465820312
aF129.37254333496094
aF129.40106201171875
aF129.42959594726562
aF129.45811462402344
aF129.4866485595703
aF129.51516723632812
aF129.54368591308594
aF129.5722198486328
aF129.60073852539062
aF129.6292724609375
aF129.6577911376953
aF129.68630981445312
aF129.71484375
aF129.7433624267578
aF129.7718963623047
aF129.8004150390625
aF129.82894897460938
aF129.8574676513672
aF129.885986328125
aF129.91452026367188
aF129.9430389404297
aF129.97157287597656
aF130.00009155273438
aF130.0286102294922
aF130.05714416503906
aF130.08566284179688
aF130.11419677734375
aF130.14271545410156
aF130.17123413085938
aF130.19976806640625
aF130.22828674316406
aF130.25682067871094
aF130.28533935546875
aF130.31385803222656
aF130.34239196777344
aF130.37091064453125
aF130.39944458007812
aF130.42796325683594
aF130.45648193359375
aF130.48501586914062
aF130.51353454589844
aF130.5420684814453
aF130.57058715820312
aF130.59910583496094
aF130.6276397705078
aF130.65615844726562
aF130.6846923828125
aF130.7132110595703
aF130.74172973632812
aF130.770263671875
aF130.7987823486328
aF130.8273162841797
aF130.8558349609375
aF130.88436889648438
aF130.92604064941406
aF131.06307983398438
aF131.30943298339844
aF131.66439819335938
aF132.12701416015625
aF132.6959991455078
aF133.43978881835938
aF134.67440795898438
aF136.35198974609375
aF138.3817138671875
aF140.65365600585938
aF143.02386474609375
aF145.02381896972656
aF147.02377319335938
aF149.02374267578125
aF151.02371215820312
aF153.023681640625
aF155.0236358642578
aF157.02359008789062
aF159.02354431152344
aF161.02349853515625
aF163.02346801757812
aF165.02342224121094
aF167.02337646484375
aF169.02334594726562
aF171.02330017089844
aF173.0232696533203
aF175.02322387695312
aF177.02317810058594
aF179.0231475830078
aF181.0231170654297
aF183.0230712890625
aF185.0230255126953
aF187.0229949951172
aF189.02294921875
aF191.02291870117188
aF192.53546142578125
aF193.9219512939453
aF195.09231567382812
aF196.0361328125
aF196.6949005126953
aF197.0251922607422
aF197.0648956298828
aF197.06988525390625
aF197.0748748779297
aF197.07986450195312
aF197.08486938476562
aF197.08985900878906
aF197.0948486328125
aF197.09983825683594
aF197.10482788085938
aF197.1098175048828
aF197.11480712890625
aF197.1197967529297
aF197.12478637695312
aF197.12977600097656
aF197.134765625
aF197.1022491455078
aF196.98202514648438
aF196.77410888671875
aF196.47903442382812
aF196.0975799560547
aF195.63072204589844
aF195.07968139648438
aF194.44586181640625
aF193.73089599609375
aF192.93666076660156
aF192.06517028808594
aF191.1187286376953
aF190.0997314453125
aF189.0108184814453
aF187.85482788085938
aF186.6347198486328
aF185.35133361816406
aF183.98057556152344
aF182.56378173828125
aF181.1033935546875
aF179.60189819335938
aF178.0619354248047
aF176.486083984375
aF174.87710571289062
aF173.2377166748047
aF171.57078552246094
aF169.879150390625
aF168.16571044921875
aF166.4334259033203
aF164.6852569580078
aF162.9242401123047
aF161.1533660888672
aF159.37570190429688
aF157.5942840576172
aF155.62332153320312
aF153.6233367919922
aF151.62335205078125
aF149.6233673095703
aF147.6233673095703
aF145.62338256835938
aF143.62254333496094
aF141.63363647460938
aF139.6701202392578
aF137.7075653076172
aF135.74681091308594
aF133.7717742919922
aF131.74032592773438
aF129.7065887451172
aF127.67137908935547
aF125.64128875732422
aF123.64100646972656
aF121.6410140991211
aF119.64102172851562
aF117.64102935791016
aF115.64103698730469
aF113.64104461669922
aF111.64105224609375
aF109.64105987548828
aF107.64106750488281
aF105.64107513427734
aF103.64108276367188
aF101.64108276367188
aF99.6410903930664
aF97.64109802246094
aF95.64110565185547
aF93.64111328125
aF91.64112854003906
aF89.6411361694336
aF87.64114379882812
aF85.64115142822266
aF83.64115905761719
aF81.64115905761719
aF79.64116668701172
aF77.64117431640625
aF75.64118194580078
aF73.64118957519531
aF71.64119720458984
aF69.64120483398438
aF67.6412124633789
aF65.64122009277344
aF63.641231536865234
aF61.641239166259766
aF59.6412467956543
aF57.64125442504883
aF55.64126205444336
aF53.64126968383789
aF51.64127731323242
aF49.64128494262695
aF47.641292572021484
aF45.641300201416016
aF43.64130783081055
aF41.64131546020508
aF39.64132308959961
aF37.64133071899414
aF35.64133834838867
aF33.6413459777832
aF31.6413516998291
aF29.641357421875
aF27.641366958618164
aF25.641374588012695
aF23.641382217407227
aF21.641389846801758
aF19.641395568847656
aF17.64140510559082
aF15.641412734985352
aF13.641420364379883
aF11.077606201171875
aF8.645971298217773
aF8.087740898132324
aF9.172677993774414
aF10.210090637207031
aF11.271222114562988
aF12.429128646850586
aF13.670315742492676
aF14.991833686828613
aF16.390525817871094
aF17.837020874023438
aF19.259185791015625
aF20.681354522705078
aF22.1035213470459
aF23.52568817138672
aF24.947853088378906
aF26.37002182006836
aF27.792190551757812
aF29.21435546875
aF30.636524200439453
aF32.058692932128906
aF33.480857849121094
aF34.90302658081055
aF36.3251953125
aF37.74736022949219
aF39.16952896118164
aF40.591697692871094
aF42.01386260986328
aF43.43602752685547
aF44.85819625854492
aF46.280364990234375
aF47.70252990722656
aF49.1324348449707
aF50.55366134643555
aF51.944759368896484
aF53.305145263671875
aF54.63425064086914
aF55.93151092529297
aF57.19638442993164
aF58.428348541259766
aF59.62687301635742
aF60.78181838989258
aF61.894927978515625
aF63.15922164916992
aF64.55895233154297
aF66.07670593261719
aF67.6935806274414
aF69.38945770263672
aF71.1431884765625
aF72.9329833984375
aF74.8132553100586
aF76.8132553100586
aF78.8132553100586
aF80.81298065185547
aF82.81298065185547
aF84.81298065185547
aF86.81298065185547
aF88.81298065185547
aF90.81298065185547
aF92.81298828125
aF94.81298828125
aF96.81298828125
aF98.81298065185547
aF100.81298065185547
aF102.81298065185547
aF104.81298065185547
aF106.81298065185547
aF108.8907241821289
aF111.00135040283203
aF113.09620666503906
aF115.1658706665039
aF117.20103454589844
aF119.19253540039062
aF121.13141632080078
aF123.00894165039062
aF124.81669616699219
aF126.54651641845703
aF128.19349670410156
aF129.7513427734375
aF131.17572021484375
aF132.45603942871094
aF133.582763671875
aF134.54751586914062
aF135.34317016601562
aF135.9637451171875
aF136.4046630859375
aF136.6626434326172
aF136.7357635498047
aF136.6922607421875
aF136.64698791503906
aF136.6017303466797
aF136.55645751953125
aF136.51119995117188
aF136.4659423828125
aF136.42066955566406
aF136.3754119873047
aF136.3301544189453
aF136.28488159179688
aF136.2396240234375
aF136.19436645507812
aF136.1490936279297
aF136.0904998779297
aF135.9055633544922
aF135.56942749023438
aF135.0838623046875
aF134.45130920410156
aF133.67507934570312
aF132.5312042236328
aF130.9228973388672
aF128.9486083984375
aF126.7137680053711
aF124.3377685546875
aF122.28759765625
aF120.28759765625
aF118.28760528564453
aF116.28761291503906
aF114.2876205444336
aF112.28762817382812
aF110.28763580322266
aF108.28764343261719
aF106.28765106201172
aF104.28765869140625
aF102.28766632080078
aF100.28767395019531
aF98.28768157958984
aF96.28768920898438
aF94.2876968383789
aF92.28770446777344
aF90.28771209716797
aF88.2877197265625
aF86.28772735595703
aF84.28773498535156
aF82.2877426147461
aF80.28775024414062
aF78.28775787353516
aF76.28776550292969
aF74.28777313232422
aF72.28778076171875
aF70.28778839111328
aF68.28779602050781
aF66.28780364990234
aF64.28781127929688
aF62.28782272338867
aF60.28782653808594
aF58.28783416748047
aF56.287841796875
aF54.28784942626953
aF52.28785705566406
aF50.287864685058594
aF48.28786849975586
aF46.28787612915039
aF44.28788375854492
aF42.28789138793945
aF40.287899017333984
aF38.287906646728516
aF36.28791427612305
aF34.28792190551758
aF32.28792953491211
aF30.28793716430664
aF28.28794288635254
aF26.28795051574707
aF24.2879581451416
aF22.287965774536133
aF20.287973403930664
aF18.287981033325195
aF16.287988662719727
aF14.287997245788574
aF12.288004875183105
aF10.288012504577637
aF8.288020133972168
aF6.288027286529541
aF4.288033962249756
aF2.288041591644287
aF0.28804922103881836
aF-1.7119430303573608
aF-3.7119359970092773
aF-5.711928844451904
aF-7.711921215057373
aF-9.711913108825684
aF-11.711902618408203
aF-13.711894989013672
aF-15.71188735961914
aF-17.711881637573242
aF-19.71187400817871
aF-21.71186637878418
aF-23.71185874938965
aF-25.711851119995117
aF-27.711843490600586
aF-29.711835861206055
aF-31.711828231811523
aF-33.71181869506836
aF-35.71181106567383
aF-37.7118034362793
aF-39.711795806884766
aF-41.711788177490234
aF-43.7117805480957
aF-45.71177291870117
aF-47.71176528930664
aF-49.71175765991211
aF-51.71175003051758
aF-53.71174240112305
aF-55.711734771728516
aF-57.711727142333984
aF-59.71171951293945
aF-61.71171569824219
aF-63.711708068847656
aF-65.71170043945312
aF-67.71170043945312
aF-69.71168518066406
aF-71.71168518066406
aF-73.711669921875
aF-75.711669921875
aF-77.71165466308594
aF-79.71165466308594
aF-81.7116470336914
aF-83.71163940429688
aF-85.71163177490234
aF-87.71162414550781
aF-89.71161651611328
aF-91.71160888671875
aF-93.71160125732422
aF-95.71159362792969
aF-97.71158599853516
aF-99.71157836914062
aF-101.7115707397461
aF-103.71156311035156
aF-105.71155548095703
aF-107.7115478515625
aF-109.71154022216797
aF-111.71153259277344
aF-113.7115249633789
aF-115.71151733398438
aF-117.71150970458984
aF-119.71150207519531
aF-121.71149444580078
aF-123.71148681640625
aF-125.71149444580078
aF-127.71148681640625
aF-129.71145629882812
aF-131.71145629882812
aF-133.71092224121094
aF-135.70391845703125
aF-137.6968994140625
aF-139.68984985351562
aF-141.68270874023438
aF-143.6754608154297
aF-145.6680908203125
aF-147.6605224609375
aF-149.6527557373047
aF-151.644775390625
aF-153.63650512695312
aF-155.62794494628906
aF-157.61904907226562
aF-159.60980224609375
aF-161.6001434326172
aF-163.59095764160156
aF-165.58770751953125
aF-167.58445739746094
aF-169.58119201660156
aF-171.57794189453125
aF-173.57467651367188
aF-175.51788330078125
aF-177.3745880126953
aF-179.2093505859375
aF-181.0122528076172
aF-182.77354431152344
aF-184.48377990722656
aF-186.13375854492188
aF-187.71453857421875
aF-189.21762084960938
aF-190.6349334716797
aF-191.9587860107422
aF-193.18211364746094
aF-194.29827880859375
aF-195.30123901367188
aF-196.1856689453125
aF-196.94674682617188
aF-197.58038330078125
aF-198.08314514160156
aF-198.452392578125
aF-198.68603515625
aF-198.78289794921875
aF-198.75503540039062
aF-198.70480346679688
aF-198.65455627441406
aF-198.60430908203125
aF-198.55406188964844
aF-198.50381469726562
aF-198.4535675048828
aF-198.40333557128906
aF-198.35308837890625
aF-198.30284118652344
aF-198.25259399414062
aF-198.2023468017578
aF-198.15211486816406
aF-198.10186767578125
aF-198.05162048339844
aF-198.00137329101562
aF-197.9511260986328
aF-197.90089416503906
aF-197.85064697265625
aF-197.80038452148438
aF-197.75013732910156
aF-197.69989013671875
aF-197.649658203125
aF-197.5994110107422
aF-197.54916381835938
aF-197.49891662597656
aF-197.44866943359375
aF-197.3984375
aF-197.3481903076172
aF-197.29794311523438
aF-197.24769592285156
aF-197.19744873046875
aF-197.14720153808594
aF-197.0969696044922
aF-197.04672241210938
aF-196.99647521972656
aF-196.9462432861328
aF-196.89599609375
aF-196.8457489013672
aF-196.79550170898438
aF-196.74526977539062
aF-196.6950225830078
aF-196.644775390625
aF-196.5945281982422
aF-196.54428100585938
aF-196.49403381347656
aF-196.4438018798828
aF-196.3935546875
aF-196.3433074951172
aF-196.29306030273438
aF-196.24281311035156
aF-196.1925811767578
aF-196.142333984375
aF-196.0920867919922
aF-196.04183959960938
aF-195.99159240722656
aF-195.94134521484375
aF-195.89111328125
aF-195.8408660888672
aF-195.79061889648438
aF-195.74037170410156
aF-195.6901397705078
aF-195.639892578125
aF-195.5896453857422
aF-195.53939819335938
aF-195.48915100097656
aF-195.43890380859375
aF-195.388671875
aF-195.3384246826172
aF-195.28817749023438
aF-195.23793029785156
aF-195.18768310546875
aF-195.137451171875
aF-195.0872039794922
aF-195.0369415283203
aF-194.98670959472656
aF-194.93646240234375
aF-194.88621520996094
aF-194.83596801757812
aF-194.7857208251953
aF-194.73548889160156
aF-194.68524169921875
aF-194.63499450683594
aF-194.58474731445312
aF-194.5345001220703
aF-194.4842529296875
aF-194.43402099609375
aF-194.38377380371094
aF-194.33352661132812
aF-194.2832794189453
aF-194.2330322265625
aF-194.18280029296875
aF-194.13255310058594
aF-194.08230590820312
aF-194.0320587158203
aF-193.9818115234375
aF-193.93154907226562
aF-193.88131713867188
aF-193.87515258789062
aF-194.07949829101562
aF-194.50814819335938
aF-195.15646362304688
aF-195.95558166503906
aF-196.57733154296875
aF-197.02789306640625
aF-197.3029327392578
aF-197.39984130859375
aF-197.39999389648438
aF-197.39999389648438
aF-197.39999389648438
aF-197.39999389648438
aF-197.39999389648438
aF-197.39999389648438
aF-197.39999389648438
aF-197.39999389648438
aF-197.39999389648438
aF-197.39999389648438
aF-197.39999389648438
aF-197.39999389648438
aF-197.39999389648438
aF-197.39999389648438
aF-197.39999389648438
aF-197.39999389648438
aF-197.39999389648438
aF-197.39999389648438
aF-197.392333984375
aF-197.31106567382812
aF-197.14120483398438
aF-196.88327026367188
aF-196.53785705566406
aF-196.10594177246094
aF-195.588623046875
aF-194.98727416992188
aF-194.30348205566406
aF-193.53904724121094
aF-192.6959686279297
aF-191.7764892578125
aF-190.78302001953125
aF-189.71817016601562
aF-188.5847625732422
aF-187.38575744628906
aF-186.12432861328125
aF-184.8037872314453
aF-183.42762756347656
aF-181.99948120117188
aF-180.52308654785156
aF-178.96392822265625
aF-177.2841339111328
aF-175.58583068847656
aF-173.86984252929688
aF-172.1370086669922
aF-170.38821411132812
aF-168.62429809570312
aF-166.8461456298828
aF-165.0546417236328
aF-163.25067138671875
aF-161.43511962890625
aF-159.60890197753906
aF-157.7729034423828
aF-155.92803955078125
aF-154.0752410888672
aF-152.2154083251953
aF-150.34945678710938
aF-148.4783477783203
aF-146.6029510498047
aF-144.72422790527344
aF-142.84310913085938
aF-140.96054077148438
aF-139.07742309570312
aF-137.155517578125
aF-135.15609741210938
aF-133.1566925048828
aF-131.15728759765625
aF-129.1578826904297
aF-127.1584701538086
aF-125.15906524658203
aF-123.15966033935547
aF-121.16024780273438
aF-119.16083526611328
aF-117.16143035888672
aF-115.16202545166016
aF-113.16261291503906
aF-111.16320037841797
aF-109.1637954711914
aF-107.16439056396484
aF-105.16497802734375
aF-103.16556549072266
aF-101.1661605834961
aF-99.16675567626953
aF-97.16734313964844
aF-95.16793060302734
aF-93.16852569580078
aF-91.16912078857422
aF-89.16970825195312
aF-87.17029571533203
aF-85.17089080810547
aF-83.1714859008789
aF-81.17207336425781
aF-79.17266082763672
aF-77.17325592041016
aF-75.1738510131836
aF-73.1744384765625
aF-71.1750259399414
aF-69.17562103271484
aF-67.17620849609375
aF-65.17680358886719
aF-63.177391052246094
aF-61.17798614501953
aF-59.17857360839844
aF-57.179168701171875
aF-55.17975616455078
aF-53.18035125732422
aF-51.180938720703125
aF-49.18153381347656
aF-47.18212127685547
aF-45.182716369628906
aF-43.18330383300781
aF-41.18389892578125
aF-39.184486389160156
aF-37.185081481933594
aF-35.1856689453125
aF-33.18626403808594
aF-31.186851501464844
aF-29.18744659423828
aF-27.188034057617188
aF-25.188629150390625
aF-23.18921661376953
aF-21.18981170654297
aF-19.190399169921875
aF-17.190994262695312
aF-15.191588401794434
aF-13.192179679870605
aF-11.192770957946777
aF-9.19336223602295
aF-7.193953990936279
aF-5.194545269012451
aF-3.195136785507202
aF-1.1957279443740845
aF0.8036807775497437
aF2.8030903339385986
aF4.8024983406066895
aF6.801907062530518
aF8.80131721496582
aF10.800725936889648
aF12.80013370513916
aF14.799542427062988
aF16.7989501953125
aF18.79836082458496
aF20.79776954650879
aF22.797178268432617
aF24.796586990356445
aF26.795995712280273
aF28.7954044342041
aF30.79481315612793
aF32.794219970703125
aF34.79363250732422
aF36.79303741455078
aF38.792449951171875
aF40.79185485839844
aF42.791263580322266
aF44.79067611694336
aF46.79008102416992
aF48.78948974609375
aF50.78889846801758
aF52.788307189941406
aF54.787715911865234
aF56.78712463378906
aa(lp3
cnumpy.core.multiarray
scalar
p4
(cnumpy
dtype
p5
(S'f8'
p6
I0
I1
tp7
Rp8
(I3
S'<'
p9
NNNI-1
I-1
I0
tp10
bS'\xd4\xdb\x04.m\x1f\x19@'
p11
tp12
Rp13
ag4
(g8
S'\xd4\xdb\x04.m\x1f\x19@'
p14
tp15
Rp16
ag4
(g8
S'\xd4\xdb\x04.m\x1f\x19@'
p17
tp18
Rp19
ag4
(g8
S'\xd4\xdb\x04.m\x1f\x19@'
p20
tp21
Rp22
ag4
(g8
S'\xd4\xdb\x04.m\x1f\x19@'
p23
tp24
Rp25
ag4
(g8
S'\xd4\xdb\x04.m\x1f\x19@'
p26
tp27
Rp28
ag4
(g8
S'\xd4\xdb\x04.m\x1f\x19@'
p29
tp30
Rp31
ag4
(g8
S'\xd4\xdb\x04.m\x1f\x19@'
p32
tp33
Rp34
ag4
(g8
S'\xd4\xdb\x04.m\x1f\x19@'
p35
tp36
Rp37
ag4
(g8
S'\xd4\xdb\x04.m\x1f\x19@'
p38
tp39
Rp40
ag4
(g8
S'\xd4\xdb\x04.m\x1f\x19@'
p41
tp42
Rp43
ag4
(g8
S'\xd4\xdb\x04.m\x1f\x19@'
p44
tp45
Rp46
ag4
(g8
S'\xd4\xdb\x04.m\x1f\x19@'
p47
tp48
Rp49
ag4
(g8
S'\xd4\xdb\x04.m\x1f\x19@'
p50
tp51
Rp52
ag4
(g8
S'\xd4\xdb\x04.m\x1f\x19@'
p53
tp54
Rp55
ag4
(g8
S'\xd4\xdb\x04.m\x1f\x19@'
p56
tp57
Rp58
ag4
(g8
S'\xd4\xdb\x04.m\x1f\x19@'
p59
tp60
Rp61
ag4
(g8
S'\xd4\xdb\x04.m\x1f\x19@'
p62
tp63
Rp64
ag4
(g8
S'\xd4\xdb\x04.m\x1f\x19@'
p65
tp66
Rp67
ag4
(g8
S'\xd4\xdb\x04.m\x1f\x19@'
p68
tp69
Rp70
ag4
(g8
S'\xd4\xdb\x04.m\x1f\x19@'
p71
tp72
Rp73
ag4
(g8
S'\xd4\xdb\x04.m\x1f\x19@'
p74
tp75
Rp76
ag4
(g8
S'\xd4\xdb\x04.m\x1f\x19@'
p77
tp78
Rp79
ag4
(g8
S'\xd4\xdb\x04.m\x1f\x19@'
p80
tp81
Rp82
ag4
(g8
S'\xd4\xdb\x04.m\x1f\x19@'
p83
tp84
Rp85
ag4
(g8
S'\xd4\xdb\x04.m\x1f\x19@'
p86
tp87
Rp88
ag4
(g8
S'\xd4\xdb\x04.m\x1f\x19@'
p89
tp90
Rp91
ag4
(g8
S'\xd4\xdb\x04.m\x1f\x19@'
p92
tp93
Rp94
ag4
(g8
S'\xd4\xdb\x04.m\x1f\x19@'
p95
tp96
Rp97
ag4
(g8
S'\xd4\xdb\x04.m\x1f\x19@'
p98
tp99
Rp100
ag4
(g8
S'\xd4\xdb\x04.m\x1f\x19@'
p101
tp102
Rp103
ag4
(g8
S'\xd4\xdb\x04.m\x1f\x19@'
p104
tp105
Rp106
ag4
(g8
S'\xd4\xdb\x04.m\x1f\x19@'
p107
tp108
Rp109
ag4
(g8
S'\xd4\xdb\x04.m\x1f\x19@'
p110
tp111
Rp112
ag4
(g8
S'\xd4\xdb\x04.m\x1f\x19@'
p113
tp114
Rp115
ag4
(g8
S'\xd4\xdb\x04.m\x1f\x19@'
p116
tp117
Rp118
ag4
(g8
S'\xd4\xdb\x04.m\x1f\x19@'
p119
tp120
Rp121
ag4
(g8
S'\xd4\xdb\x04.m\x1f\x19@'
p122
tp123
Rp124
ag4
(g8
S'\xd4\xdb\x04.m\x1f\x19@'
p125
tp126
Rp127
ag4
(g8
S'\xd4\xdb\x04.m\x1f\x19@'
p128
tp129
Rp130
ag4
(g8
S'\xd4\xdb\x04.m\x1f\x19@'
p131
tp132
Rp133
ag4
(g8
S'\xd4\xdb\x04.m\x1f\x19@'
p134
tp135
Rp136
ag4
(g8
S'\xd4\xdb\x04.m\x1f\x19@'
p137
tp138
Rp139
ag4
(g8
S'\xd4\xdb\x04.m\x1f\x19@'
p140
tp141
Rp142
ag4
(g8
S'\xd4\xdb\x04.m\x1f\x19@'
p143
tp144
Rp145
ag4
(g8
S'\xd4\xdb\x04.m\x1f\x19@'
p146
tp147
Rp148
ag4
(g8
S'\xd4\xdb\x04.m\x1f\x19@'
p149
tp150
Rp151
ag4
(g8
S'\xd4\xdb\x04.m\x1f\x19@'
p152
tp153
Rp154
ag4
(g8
S'\xd4\xdb\x04.m\x1f\x19@'
p155
tp156
Rp157
ag4
(g8
S'\xd4\xdb\x04.m\x1f\x19@'
p158
tp159
Rp160
ag4
(g8
S'\xd4\xdb\x04.m\x1f\x19@'
p161
tp162
Rp163
ag4
(g8
S'\xd4\xdb\x04.m\x1f\x19@'
p164
tp165
Rp166
ag4
(g8
S'\xd4\xdb\x04.m\x1f\x19@'
p167
tp168
Rp169
ag4
(g8
S'\xd4\xdb\x04.m\x1f\x19@'
p170
tp171
Rp172
ag4
(g8
S'\xd4\xdb\x04.m\x1f\x19@'
p173
tp174
Rp175
ag4
(g8
S'\xd4\xdb\x04.m\x1f\x19@'
p176
tp177
Rp178
ag4
(g8
S'\xd4\xdb\x04.m\x1f\x19@'
p179
tp180
Rp181
ag4
(g8
S'\xd4\xdb\x04.m\x1f\x19@'
p182
tp183
Rp184
ag4
(g8
S'\xd4\xdb\x04.m\x1f\x19@'
p185
tp186
Rp187
ag4
(g8
S'\xd4\xdb\x04.m\x1f\x19@'
p188
tp189
Rp190
ag4
(g8
S'\x9eb4\xae\xae\x14\x19@'
p191
tp192
Rp193
ag4
(g8
S'f\xd0`\x93U\x01\x19@'
p194
tp195
Rp196
ag4
(g8
S'\xb8X\n\xc0\xfc\xed\x18@'
p197
tp198
Rp199
ag4
(g8
S'\x80\xc66\xa5\xa3\xda\x18@'
p200
tp201
Rp202
ag4
(g8
S'\xd2N\xe0\xd1J\xc7\x18@'
p203
tp204
Rp205
ag4
(g8
S'\x9a\xbc\x0c\xb7\xf1\xb3\x18@'
p206
tp207
Rp208
ag4
(g8
S'\xecD\xb6\xe3\x98\xa0\x18@'
p209
tp210
Rp211
ag4
(g8
S'\xb4\xb2\xe2\xc8?\x8d\x18@'
p212
tp213
Rp214
ag4
(g8
S'\x05;\x8c\xf5\xe6y\x18@'
p215
tp216
Rp217
ag4
(g8
S'\xce\xa8\xb8\xda\x8df\x18@'
p218
tp219
Rp220
ag4
(g8
S'\x1f1b\x075S\x18@'
p221
tp222
Rp223
ag4
(g8
S'\xe8\x9e\x8e\xec\xdb?\x18@'
p224
tp225
Rp226
ag4
(g8
S"9'8\x19\x83,\x18@"
p227
tp228
Rp229
ag4
(g8
S'F"#"*\x19\x18@'
p230
tp231
Rp232
ag4
(g8
S'S\x1d\x0e+\xd1\x05\x18@'
p233
tp234
Rp235
ag4
(g8
S'`\x18\xf93x\xf2\x17@'
p236
tp237
Rp238
ag4
(g8
S'm\x13\xe4<\x1f\xdf\x17@'
p239
tp240
Rp241
ag4
(g8
S'z\x0e\xcfE\xc6\xcb\x17@'
p242
tp243
Rp244
ag4
(g8
S'\x87\t\xbaNm\xb8\x17@'
p245
tp246
Rp247
ag4
(g8
S'\x93\x04\xa5W\x14\xa5\x17@'
p248
tp249
Rp250
ag4
(g8
S'\xa0\xff\x8f`\xbb\x91\x17@'
p251
tp252
Rp253
ag4
(g8
S'\xad\xfazib~\x17@'
p254
tp255
Rp256
ag4
(g8
S'\xba\xf5er\tk\x17@'
p257
tp258
Rp259
ag4
(g8
S'\xc7\xf0P{\xb0W\x17@'
p260
tp261
Rp262
ag4
(g8
S'\xd4\xeb;\x84WD\x17@'
p263
tp264
Rp265
ag4
(g8
S'\xe1\xe6&\x8d\xfe0\x17@'
p266
tp267
Rp268
ag4
(g8
S'\xee\xe1\x11\x96\xa5\x1d\x17@'
p269
tp270
Rp271
ag4
(g8
S'\xfb\xdc\xfc\x9eL\n\x17@'
p272
tp273
Rp274
ag4
(g8
S'\x08\xd8\xe7\xa7\xf3\xf6\x16@'
p275
tp276
Rp277
ag4
(g8
S'Y`\x91\xd4\x9a\xe3\x16@'
p278
tp279
Rp280
ag4
(g8
S'Z\x84\x95\x03]\xc0\x16@'
p281
tp282
Rp283
ag4
(g8
S'\xf5\xb1\xc3\x00=\x9c\x16@'
p284
tp285
Rp286
ag4
(g8
S'KR3\xda\x1cx\x16@'
p287
tp288
Rp289
ag4
(g8
S'\xa2\xf2\xa2\xb3\xfcS\x16@'
p290
tp291
Rp292
ag4
(g8
S'= \xd1\xb0\xdc/\x16@'
p293
tp294
Rp295
ag4
(g8
S'\xd8M\xff\xad\xbc\x0b\x16@'
p296
tp297
Rp298
ag4
(g8
S'.\xeen\x87\x9c\xe7\x15@'
p299
tp300
Rp301
ag4
(g8
S'\x85\x8e\xde`|\xc3\x15@'
p302
tp303
Rp304
ag4
(g8
S' \xbc\x0c^\\\x9f\x15@'
p305
tp306
Rp307
ag4
(g8
S'v\\|7<{\x15@'
p308
tp309
Rp310
ag4
(g8
S'\x11\x8a\xaa4\x1cW\x15@'
p311
tp312
Rp313
ag4
(g8
S'g*\x1a\x0e\xfc2\x15@'
p314
tp315
Rp316
ag4
(g8
S'\x02XH\x0b\xdc\x0e\x15@'
p317
tp318
Rp319
ag4
(g8
S'Y\xf8\xb7\xe4\xbb\xea\x14@'
p320
tp321
Rp322
ag4
(g8
S"\xaf\x98'\xbe\x9b\xc6\x14@"
p323
tp324
Rp325
ag4
(g8
S'J\xc6U\xbb{\xa2\x14@'
p326
tp327
Rp328
ag4
(g8
S'\xe5\xf3\x83\xb8[~\x14@'
p329
tp330
Rp331
ag4
(g8
S'<\x94\xf3\x91;Z\x14@'
p332
tp333
Rp334
ag4
(g8
S'\x924ck\x1b6\x14@'
p335
tp336
Rp337
ag4
(g8
S'-b\x91h\xfb\x11\x14@'
p338
tp339
Rp340
ag4
(g8
S'\xc8\x8f\xbfe\xdb\xed\x13@'
p341
tp342
Rp343
ag4
(g8
S'\x1f0/?\xbb\xc9\x13@'
p344
tp345
Rp346
ag4
(g8
S'u\xd0\x9e\x18\x9b\xa5\x13@'
p347
tp348
Rp349
ag4
(g8
S'\x10\xfe\xcc\x15{\x81\x13@'
p350
tp351
Rp352
ag4
(g8
S'g\x9e<\xefZ]\x13@'
p353
tp354
Rp355
ag4
(g8
S'\x02\xccj\xec:9\x13@'
p356
tp357
Rp358
ag4
(g8
S'Xl\xda\xc5\x1a\x15\x13@'
p359
tp360
Rp361
ag4
(g8
S';7\xf3\xb7b\xf2\x12@'
p362
tp363
Rp364
ag4
(g8
S';7\xf3\xb7b\xf2\x12@'
p365
tp366
Rp367
ag4
(g8
S';7\xf3\xb7b\xf2\x12@'
p368
tp369
Rp370
ag4
(g8
S';7\xf3\xb7b\xf2\x12@'
p371
tp372
Rp373
ag4
(g8
S';7\xf3\xb7b\xf2\x12@'
p374
tp375
Rp376
ag4
(g8
S';7\xf3\xb7b\xf2\x12@'
p377
tp378
Rp379
ag4
(g8
S';7\xf3\xb7b\xf2\x12@'
p380
tp381
Rp382
ag4
(g8
S';7\xf3\xb7b\xf2\x12@'
p383
tp384
Rp385
ag4
(g8
S';7\xf3\xb7b\xf2\x12@'
p386
tp387
Rp388
ag4
(g8
S';7\xf3\xb7b\xf2\x12@'
p389
tp390
Rp391
ag4
(g8
S';7\xf3\xb7b\xf2\x12@'
p392
tp393
Rp394
ag4
(g8
S';7\xf3\xb7b\xf2\x12@'
p395
tp396
Rp397
ag4
(g8
S';7\xf3\xb7b\xf2\x12@'
p398
tp399
Rp400
ag4
(g8
S';7\xf3\xb7b\xf2\x12@'
p401
tp402
Rp403
ag4
(g8
S';7\xf3\xb7b\xf2\x12@'
p404
tp405
Rp406
ag4
(g8
S';7\xf3\xb7b\xf2\x12@'
p407
tp408
Rp409
ag4
(g8
S';7\xf3\xb7b\xf2\x12@'
p410
tp411
Rp412
ag4
(g8
S';7\xf3\xb7b\xf2\x12@'
p413
tp414
Rp415
ag4
(g8
S';7\xf3\xb7b\xf2\x12@'
p416
tp417
Rp418
ag4
(g8
S';7\xf3\xb7b\xf2\x12@'
p419
tp420
Rp421
ag4
(g8
S';7\xf3\xb7b\xf2\x12@'
p422
tp423
Rp424
ag4
(g8
S';7\xf3\xb7b\xf2\x12@'
p425
tp426
Rp427
ag4
(g8
S';7\xf3\xb7b\xf2\x12@'
p428
tp429
Rp430
ag4
(g8
S';7\xf3\xb7b\xf2\x12@'
p431
tp432
Rp433
ag4
(g8
S';7\xf3\xb7b\xf2\x12@'
p434
tp435
Rp436
ag4
(g8
S';7\xf3\xb7b\xf2\x12@'
p437
tp438
Rp439
ag4
(g8
S';7\xf3\xb7b\xf2\x12@'
p440
tp441
Rp442
ag4
(g8
S';7\xf3\xb7b\xf2\x12@'
p443
tp444
Rp445
ag4
(g8
S';7\xf3\xb7b\xf2\x12@'
p446
tp447
Rp448
ag4
(g8
S';7\xf3\xb7b\xf2\x12@'
p449
tp450
Rp451
ag4
(g8
S';7\xf3\xb7b\xf2\x12@'
p452
tp453
Rp454
ag4
(g8
S'-?\xa8O\x050\xf9\xbf'
p455
tp456
Rp457
ag4
(g8
S'\xf6I\xa4\xb8\x89\x1e\xfb\xbf'
p458
tp459
Rp460
ag4
(g8
S'\xbeT\xa0!\x0e\r\xfd\xbf'
p461
tp462
Rp463
ag4
(g8
S's*\xa2\xfb\x91\xfb\xfe\xbf'
p464
tp465
Rp466
ag4
(g8
S'\x14\x00\xd2\xea\nu\x00\xc0'
p467
tp468
Rp469
ag4
(g8
S'\x02 \xcdfMl\x01\xc0'
p470
tp471
Rp472
ag4
(g8
S'\xdd\n\xceS\x8fc\x02\xc0'
p473
tp474
Rp475
ag4
(g8
S'\xfa\x99f\xc9\x89\xe7\x0e@'
p476
tp477
Rp478
ag4
(g8
S'z4\xd1\x17\xc8\xed\r@'
p479
tp480
Rp481
ag4
(g8
S'\xfa\xce;f\x06\xf4\x0c@'
p482
tp483
Rp484
ag4
(g8
S'\xbe\xf6d\xd8D\xfa\x0b@'
p485
tp486
Rp487
ag4
(g8
S'>\x91\xcf&\x83\x00\x0b@'
p488
tp489
Rp490
ag4
(g8
S'\xbe+:u\xc1\x06\n@'
p491
tp492
Rp493
ag4
(g8
S'\xcd\x82\xe9\x89\xb6\x1c\t@'
p494
tp495
Rp496
ag4
(g8
S'\xcd\x82\xe9\x89\xb6\x1c\t@'
p497
tp498
Rp499
ag4
(g8
S'\xcd\x82\xe9\x89\xb6\x1c\t@'
p500
tp501
Rp502
ag4
(g8
S'\xcd\x82\xe9\x89\xb6\x1c\t@'
p503
tp504
Rp505
ag4
(g8
S'\xcd\x82\xe9\x89\xb6\x1c\t@'
p506
tp507
Rp508
ag4
(g8
S'\xcd\x82\xe9\x89\xb6\x1c\t@'
p509
tp510
Rp511
ag4
(g8
S'\x89\xf5*f\xb6\x1c\t@'
p512
tp513
Rp514
ag4
(g8
S'\x89\xf5*f\xb6\x1c\t@'
p515
tp516
Rp517
ag4
(g8
S'\x89\xf5*f\xb6\x1c\t@'
p518
tp519
Rp520
ag4
(g8
S'\x89\xf5*f\xb6\x1c\t@'
p521
tp522
Rp523
ag4
(g8
S'\x89\xf5*f\xb6\x1c\t@'
p524
tp525
Rp526
ag4
(g8
S'\x89\xf5*f\xb6\x1c\t@'
p527
tp528
Rp529
ag4
(g8
S'\x89\xf5*f\xb6\x1c\t@'
p530
tp531
Rp532
ag4
(g8
S'\x89\xf5*f\xb6\x1c\t@'
p533
tp534
Rp535
ag4
(g8
S'\x89\xf5*f\xb6\x1c\t@'
p536
tp537
Rp538
ag4
(g8
S'\x89\xf5*f\xb6\x1c\t@'
p539
tp540
Rp541
ag4
(g8
S'\x89\xf5*f\xb6\x1c\t@'
p542
tp543
Rp544
ag4
(g8
S'\x89\xf5*f\xb6\x1c\t@'
p545
tp546
Rp547
ag4
(g8
S'\x89\xf5*f\xb6\x1c\t@'
p548
tp549
Rp550
ag4
(g8
S'\x00\\[e\xab\xdb\t\xc0'
p551
tp552
Rp553
ag4
(g8
S'\t#\xe6\t\xcd\xcc\n\xc0'
p554
tp555
Rp556
ag4
(g8
S'Ww/\xd2\xee\xbd\x0b\xc0'
p557
tp558
Rp559
ag4
(g8
S'a>\xbav\x10\xaf\x0c\xc0'
p560
tp561
Rp562
ag4
(g8
S'j\x05E\x1b2\xa0\r\xc0'
p563
tp564
Rp565
ag4
(g8
S'\xb8Y\x8e\xe3S\x91\x0e\xc0'
p566
tp567
Rp568
ag4
(g8
S'\xa1nH\xdeU\xb8\x02@'
p569
tp570
Rp571
ag4
(g8
S'\xf7\\r\xd6\xd6\xae\x01@'
p572
tp573
Rp574
ag4
(g8
S'\t\xbe\xdd\xaaW\xa5\x00@'
p575
tp576
Rp577
ag4
(g8
S'y\xcbP"\xb17\xff?'
p578
tp579
Rp580
ag4
(g8
S'\xe1\x1a\xe6\xee\xb2$\xfd?'
p581
tp582
Rp583
ag4
(g8
S'\x04\xdd\xbc\x97\xb4\x11\xfb?'
p584
tp585
Rp586
ag4
(g8
S'\xcay\xcf\xc74!\xf9?'
p587
tp588
Rp589
ag4
(g8
S'T\x94L\x0f5!\xf9?'
p590
tp591
Rp592
ag4
(g8
S'T\x94L\x0f5!\xf9?'
p593
tp594
Rp595
ag4
(g8
S'T\x94L\x0f5!\xf9?'
p596
tp597
Rp598
ag4
(g8
S'T\x94L\x0f5!\xf9?'
p599
tp600
Rp601
ag4
(g8
S'T\x94L\x0f5!\xf9?'
p602
tp603
Rp604
ag4
(g8
S'T\x94L\x0f5!\xf9?'
p605
tp606
Rp607
ag4
(g8
S'T\x94L\x0f5!\xf9?'
p608
tp609
Rp610
ag4
(g8
S'\xea?9+\xa4~\xf9?'
p611
tp612
Rp613
ag4
(g8
S'\xa7\xee@\xfbGM\xfa?'
p614
tp615
Rp616
ag4
(g8
S'\xa9*\x07\xef\xeb\x1b\xfb?'
p617
tp618
Rp619
ag4
(g8
S'g\xd9\x0e\xbf\x8f\xea\xfb?'
p620
tp621
Rp622
ag4
(g8
S'$\x88\x16\x8f3\xb9\xfc?'
p623
tp624
Rp625
ag4
(g8
S'kQ\x9b\xa6\xd7\x87\xfd?'
p626
tp627
Rp628
ag4
(g8
S')\x00\xa3v{V\xfe?'
p629
tp630
Rp631
ag4
(g8
S'+<ij\x1f%\xff?'
p632
tp633
Rp634
ag4
(g8
S'\xe8\xeap:\xc3\xf3\xff?'
p635
tp636
Rp637
ag4
(g8
S'u\x93\x1b\x973a\x00@'
p638
tp639
Rp640
ag4
(g8
S'v\xb1\xfe\x90\x85\xc8\x00@'
p641
tp642
Rp643
ag4
(g8
S'\xd5\x88\x02y\xd7/\x01@'
p644
tp645
Rp646
ag4
(g8
S'4`\x06a)\x97\x01@'
p647
tp648
Rp649
ag4
(g8
S'5~\xe9Z{\xfe\x01@'
p650
tp651
Rp652
ag4
(g8
S'6\x9c\xccT\xcde\x02@'
p653
tp654
Rp655
ag4
(g8
S'\xe2\xaf\xca\xa7\xcf\xcd\x02@'
p656
tp657
Rp658
ag4
(g8
S'Jl\x11\xdd-8\x03@'
p659
tp660
Rp661
ag4
(g8
S';C\xd5Y\x8c\xa2\x03@'
p662
tp663
Rp664
ag4
(g8
S'\xe7\x8c\xda\xb2\xea\x0c\x04@'
p665
tp666
Rp667
ag4
(g8
S'\x94\xd6\xdf\x0bIw\x04@'
p668
tp669
Rp670
ag4
(g8
S'@ \xe5d\xa7\xe1\x04@'
p671
tp672
Rp673
ag4
(g8
S'1\xf7\xa8\xe1\x05L\x05@'
p674
tp675
Rp676
ag4
(g8
S'\xdd@\xae:d\xb6\x05@'
p677
tp678
Rp679
ag4
(g8
S'\x8a\x8a\xb3\x93\xc2 \x06@'
p680
tp681
Rp682
ag4
(g8
S'6\xd4\xb8\xec \x8b\x06@'
p683
tp684
Rp685
ag4
(g8
S'\xe2\x1d\xbeE\x7f\xf5\x06@'
p686
tp687
Rp688
ag4
(g8
S'\xd3\xf4\x81\xc2\xdd_\x07@'
p689
tp690
Rp691
ag4
(g8
S'\x80>\x87\x1b<\xca\x07@'
p692
tp693
Rp694
ag4
(g8
S',\x88\x8ct\x9a4\x08@'
p695
tp696
Rp697
ag4
(g8
S'\xd8\xd1\x91\xcd\xf8\x9e\x08@'
p698
tp699
Rp700
ag4
(g8
S'Bp:\x80\xc5\x04\t@'
p701
tp702
Rp703
ag4
(g8
S'Bp:\x80\xc5\x04\t@'
p704
tp705
Rp706
ag4
(g8
S'Bp:\x80\xc5\x04\t@'
p707
tp708
Rp709
ag4
(g8
S'Bp:\x80\xc5\x04\t@'
p710
tp711
Rp712
ag4
(g8
S'Bp:\x80\xc5\x04\t@'
p713
tp714
Rp715
ag4
(g8
S'Bp:\x80\xc5\x04\t@'
p716
tp717
Rp718
ag4
(g8
S'Bp:\x80\xc5\x04\t@'
p719
tp720
Rp721
ag4
(g8
S'Bp:\x80\xc5\x04\t@'
p722
tp723
Rp724
ag4
(g8
S'Bp:\x80\xc5\x04\t@'
p725
tp726
Rp727
ag4
(g8
S'Bp:\x80\xc5\x04\t@'
p728
tp729
Rp730
ag4
(g8
S'Bp:\x80\xc5\x04\t@'
p731
tp732
Rp733
ag4
(g8
S'Bp:\x80\xc5\x04\t@'
p734
tp735
Rp736
ag4
(g8
S'Bp:\x80\xc5\x04\t@'
p737
tp738
Rp739
ag4
(g8
S'Bp:\x80\xc5\x04\t@'
p740
tp741
Rp742
ag4
(g8
S'Bp:\x80\xc5\x04\t@'
p743
tp744
Rp745
ag4
(g8
S'Bp:\x80\xc5\x04\t@'
p746
tp747
Rp748
ag4
(g8
S'Bp:\x80\xc5\x04\t@'
p749
tp750
Rp751
ag4
(g8
S'Bp:\x80\xc5\x04\t@'
p752
tp753
Rp754
ag4
(g8
S'Bp:\x80\xc5\x04\t@'
p755
tp756
Rp757
ag4
(g8
S'Bp:\x80\xc5\x04\t@'
p758
tp759
Rp760
ag4
(g8
S'Bp:\x80\xc5\x04\t@'
p761
tp762
Rp763
ag4
(g8
S'Bp:\x80\xc5\x04\t@'
p764
tp765
Rp766
ag4
(g8
S'Bp:\x80\xc5\x04\t@'
p767
tp768
Rp769
ag4
(g8
S'Bp:\x80\xc5\x04\t@'
p770
tp771
Rp772
ag4
(g8
S'Bp:\x80\xc5\x04\t@'
p773
tp774
Rp775
ag4
(g8
S'Bp:\x80\xc5\x04\t@'
p776
tp777
Rp778
ag4
(g8
S'Bp:\x80\xc5\x04\t@'
p779
tp780
Rp781
ag4
(g8
S'Bp:\x80\xc5\x04\t@'
p782
tp783
Rp784
ag4
(g8
S'Bp:\x80\xc5\x04\t@'
p785
tp786
Rp787
ag4
(g8
S'Bp:\x80\xc5\x04\t@'
p788
tp789
Rp790
ag4
(g8
S'Bp:\x80\xc5\x04\t@'
p791
tp792
Rp793
ag4
(g8
S'Bp:\x80\xc5\x04\t@'
p794
tp795
Rp796
ag4
(g8
S'Bp:\x80\xc5\x04\t@'
p797
tp798
Rp799
ag4
(g8
S'Bp:\x80\xc5\x04\t@'
p800
tp801
Rp802
ag4
(g8
S'Bp:\x80\xc5\x04\t@'
p803
tp804
Rp805
ag4
(g8
S'Bp:\x80\xc5\x04\t@'
p806
tp807
Rp808
ag4
(g8
S'Bp:\x80\xc5\x04\t@'
p809
tp810
Rp811
ag4
(g8
S'Bp:\x80\xc5\x04\t@'
p812
tp813
Rp814
ag4
(g8
S'Bp:\x80\xc5\x04\t@'
p815
tp816
Rp817
ag4
(g8
S'Bp:\x80\xc5\x04\t@'
p818
tp819
Rp820
ag4
(g8
S'Bp:\x80\xc5\x04\t@'
p821
tp822
Rp823
ag4
(g8
S'Bp:\x80\xc5\x04\t@'
p824
tp825
Rp826
ag4
(g8
S'Bp:\x80\xc5\x04\t@'
p827
tp828
Rp829
ag4
(g8
S'Bp:\x80\xc5\x04\t@'
p830
tp831
Rp832
ag4
(g8
S'Bp:\x80\xc5\x04\t@'
p833
tp834
Rp835
ag4
(g8
S'Bp:\x80\xc5\x04\t@'
p836
tp837
Rp838
ag4
(g8
S'Bp:\x80\xc5\x04\t@'
p839
tp840
Rp841
ag4
(g8
S'Bp:\x80\xc5\x04\t@'
p842
tp843
Rp844
ag4
(g8
S'Bp:\x80\xc5\x04\t@'
p845
tp846
Rp847
ag4
(g8
S'Bp:\x80\xc5\x04\t@'
p848
tp849
Rp850
ag4
(g8
S'Bp:\x80\xc5\x04\t@'
p851
tp852
Rp853
ag4
(g8
S'Bp:\x80\xc5\x04\t@'
p854
tp855
Rp856
ag4
(g8
S'Bp:\x80\xc5\x04\t@'
p857
tp858
Rp859
ag4
(g8
S'Bp:\x80\xc5\x04\t@'
p860
tp861
Rp862
ag4
(g8
S'Bp:\x80\xc5\x04\t@'
p863
tp864
Rp865
ag4
(g8
S'Bp:\x80\xc5\x04\t@'
p866
tp867
Rp868
ag4
(g8
S'Bp:\x80\xc5\x04\t@'
p869
tp870
Rp871
ag4
(g8
S'Bp:\x80\xc5\x04\t@'
p872
tp873
Rp874
ag4
(g8
S'Bp:\x80\xc5\x04\t@'
p875
tp876
Rp877
ag4
(g8
S'1\xe8\xb3\xc0n\xd1\x08@'
p878
tp879
Rp880
ag4
(g8
S')!\x80\xde\xf2e\x08@'
p881
tp882
Rp883
ag4
(g8
S'f\xe7\n w\xfa\x07@'
p884
tp885
Rp886
ag4
(g8
S'\xa2\xad\x95a\xfb\x8e\x07@'
p887
tp888
Rp889
ag4
(g8
S'\x9a\xe6a\x7f\x7f#\x07@'
p890
tp891
Rp892
ag4
(g8
S'\xd6\xac\xec\xc0\x03\xb8\x06@'
p893
tp894
Rp895
ag4
(g8
S'\xd5\\xl\x98\xbf\x05@'
p896
tp897
Rp898
ag4
(g8
S'\tan\x9b\xee\xe1\x03@'
p899
tp900
Rp901
ag4
(g8
S'=ed\xcaD\x04\x02@'
p902
tp903
Rp904
ag4
(g8
S'\xcf"{\xe7\x9a&\x00@'
p905
tp906
Rp907
ag4
(g8
S'\x05N\xe2,\xe2\x91\xfc?'
p908
tp909
Rp910
ag4
(g8
S'Sa\x92\x90\x10\x08\xf9?'
p911
tp912
Rp913
ag4
(g8
S'Sa\x92\x90\x10\x08\xf9?'
p914
tp915
Rp916
ag4
(g8
S'Sa\x92\x90\x10\x08\xf9?'
p917
tp918
Rp919
ag4
(g8
S'Sa\x92\x90\x10\x08\xf9?'
p920
tp921
Rp922
ag4
(g8
S'\x0e\xd4\xd3l\x10\x08\xf9?'
p923
tp924
Rp925
ag4
(g8
S'\x0e\xd4\xd3l\x10\x08\xf9?'
p926
tp927
Rp928
ag4
(g8
S'\x0e\xd4\xd3l\x10\x08\xf9?'
p929
tp930
Rp931
ag4
(g8
S'\x0e\xd4\xd3l\x10\x08\xf9?'
p932
tp933
Rp934
ag4
(g8
S'\x0e\xd4\xd3l\x10\x08\xf9?'
p935
tp936
Rp937
ag4
(g8
S'\x0e\xd4\xd3l\x10\x08\xf9?'
p938
tp939
Rp940
ag4
(g8
S'\x0e\xd4\xd3l\x10\x08\xf9?'
p941
tp942
Rp943
ag4
(g8
S'\x0e\xd4\xd3l\x10\x08\xf9?'
p944
tp945
Rp946
ag4
(g8
S'\x0e\xd4\xd3l\x10\x08\xf9?'
p947
tp948
Rp949
ag4
(g8
S'\x0e\xd4\xd3l\x10\x08\xf9?'
p950
tp951
Rp952
ag4
(g8
S'\x0e\xd4\xd3l\x10\x08\xf9?'
p953
tp954
Rp955
ag4
(g8
S'\x0e\xd4\xd3l\x10\x08\xf9?'
p956
tp957
Rp958
ag4
(g8
S'\x0e\xd4\xd3l\x10\x08\xf9?'
p959
tp960
Rp961
ag4
(g8
S'\x0e\xd4\xd3l\x10\x08\xf9?'
p962
tp963
Rp964
ag4
(g8
S'\x0e\xd4\xd3l\x10\x08\xf9?'
p965
tp966
Rp967
ag4
(g8
S'\x0e\xd4\xd3l\x10\x08\xf9?'
p968
tp969
Rp970
ag4
(g8
S'\x0e\xd4\xd3l\x10\x08\xf9?'
p971
tp972
Rp973
ag4
(g8
S'\x0e\xd4\xd3l\x10\x08\xf9?'
p974
tp975
Rp976
ag4
(g8
S'\x0e\xd4\xd3l\x10\x08\xf9?'
p977
tp978
Rp979
ag4
(g8
S'\x0e\xd4\xd3l\x10\x08\xf9?'
p980
tp981
Rp982
ag4
(g8
S'\x0e\xd4\xd3l\x10\x08\xf9?'
p983
tp984
Rp985
ag4
(g8
S'\xec2\xc5\x96\xa7V\xfd?'
p986
tp987
Rp988
ag4
(g8
S'}\xc3\x9d\x96\xbf\xe6\x00@'
p989
tp990
Rp991
ag4
(g8
S'@`\x1a>+"\x03@'
p992
tp993
Rp994
ag4
(g8
S"'#t\x9e\x00\xf1\x04@"
p995
tp996
Rp997
ag4
(g8
S'\xc9\x92t\xda\xc6\xa4\x06@'
p998
tp999
Rp1000
ag4
(g8
S'\xb0\x8f3:\x8dX\x08@'
p1001
tp1002
Rp1003
ag4
(g8
S'\x91\x8a\xc5\x07\xdf\x1c\t@'
p1004
tp1005
Rp1006
ag4
(g8
S'\x91\x8a\xc5\x07\xdf\x1c\t@'
p1007
tp1008
Rp1009
ag4
(g8
S'\x91\x8a\xc5\x07\xdf\x1c\t@'
p1010
tp1011
Rp1012
ag4
(g8
S'\x91\x8a\xc5\x07\xdf\x1c\t@'
p1013
tp1014
Rp1015
ag4
(g8
S'\x91\x8a\xc5\x07\xdf\x1c\t@'
p1016
tp1017
Rp1018
ag4
(g8
S'\x91\x8a\xc5\x07\xdf\x1c\t@'
p1019
tp1020
Rp1021
ag4
(g8
S'\x91\x8a\xc5\x07\xdf\x1c\t@'
p1022
tp1023
Rp1024
ag4
(g8
S'\x91\x8a\xc5\x07\xdf\x1c\t@'
p1025
tp1026
Rp1027
ag4
(g8
S'\x91\x8a\xc5\x07\xdf\x1c\t@'
p1028
tp1029
Rp1030
ag4
(g8
S'\x91\x8a\xc5\x07\xdf\x1c\t@'
p1031
tp1032
Rp1033
ag4
(g8
S"\x16\xb5EY\x17'\t\xc0"
p1034
tp1035
Rp1036
ag4
(g8
S"\x16\xb5EY\x17'\t\xc0"
p1037
tp1038
Rp1039
ag4
(g8
S"\x16\xb5EY\x17'\t\xc0"
p1040
tp1041
Rp1042
ag4
(g8
S"\x16\xb5EY\x17'\t\xc0"
p1043
tp1044
Rp1045
ag4
(g8
S"\x16\xb5EY\x17'\t\xc0"
p1046
tp1047
Rp1048
ag4
(g8
S'\xccq\x19<\xd3\xc7\x08\xc0'
p1049
tp1050
Rp1051
ag4
(g8
S'e$\x9d\x0e\xb8_\x08\xc0'
p1052
tp1053
Rp1054
ag4
(g8
S'u\xbc\xa3\x99\x9c\xf7\x07\xc0'
p1055
tp1056
Rp1057
ag4
(g8
S"\x0eo'l\x81\x8f\x07\xc0"
p1058
tp1059
Rp1060
ag4
(g8
S"b\x94\xec\x1af'\x07\xc0"
p1061
tp1062
Rp1063
ag4
(g8
S'\xb6\xb9\xb1\xc9J\xbf\x06\xc0'
p1064
tp1065
Rp1066
ag4
(g8
S'Ol5\x9c/W\x06\xc0'
p1067
tp1068
Rp1069
ag4
(g8
S"_\x04<'\x14\xef\x05\xc0"
p1070
tp1071
Rp1072
ag4
(g8
S'\xf7\xb6\xbf\xf9\xf8\x86\x05\xc0'
p1073
tp1074
Rp1075
ag4
(g8
S'L\xdc\x84\xa8\xdd\x1e\x05\xc0'
p1076
tp1077
Rp1078
ag4
(g8
S'\xa0\x01JW\xc2\xb6\x04\xc0'
p1079
tp1080
Rp1081
ag4
(g8
S'\xf4&\x0f\x06\xa7N\x04\xc0'
p1082
tp1083
Rp1084
ag4
(g8
S'HL\xd4\xb4\x8b\xe6\x03\xc0'
p1085
tp1086
Rp1087
ag4
(g8
S'\x9dq\x99cp~\x03\xc0'
p1088
tp1089
Rp1090
ag4
(g8
S'6$\x1d6U\x16\x03\xc0'
p1091
tp1092
Rp1093
ag4
(g8
S'E\xbc#\xc19\xae\x02\xc0'
p1094
tp1095
Rp1096
ag4
(g8
S')\xff9"\xa1\xfc\x0f@'
p1097
tp1098
Rp1099
ag4
(g8
S'F\xb0\x8b\xa9\xc4(\x10@'
p1100
tp1101
Rp1102
ag4
(g8
S'\xdf4\x98\xf78S\x10@'
p1103
tp1104
Rp1105
ag4
(g8
S'\x91\xe5\x06\x10\xad}\x10@'
p1106
tp1107
Rp1108
ag4
(g8
S'\x87#4L!\xa8\x10@'
p1109
tp1110
Rp1111
ag4
(g8
S'~aa\x88\x95\xd2\x10@'
p1112
tp1113
Rp1114
ag4
(g8
S'\xd2X\xaf\xb2\t\xfd\x10@'
p1115
tp1116
Rp1117
ag4
(g8
S"\xc8\x96\xdc\xee}'\x11@"
p1118
tp1119
Rp1120
ag4
(g8
S'zGK\x07\xf2Q\x11@'
p1121
tp1122
Rp1123
ag4
(g8
S'\x13\xccWUf|\x11@'
p1124
tp1125
Rp1126
ag4
(g8
S'\t\n\x85\x91\xda\xa6\x11@'
p1127
tp1128
Rp1129
ag4
(g8
S'\xbb\xba\xf3\xa9N\xd1\x11@'
p1130
tp1131
Rp1132
ag4
(g8
S'\xb2\xf8 \xe6\xc2\xfb\x11@'
p1133
tp1134
Rp1135
ag4
(g8
S'c\xa9\x8f\xfe6&\x12@'
p1136
tp1137
Rp1138
ag4
(g8
S'\x9et{^\xabP\x12@'
p1139
tp1140
Rp1141
ag4
(g8
S'P%\xeav\x1f{\x12@'
p1142
tp1143
Rp1144
ag4
(g8
S'Gc\x17\xb3\x93\xa5\x12@'
p1145
tp1146
Rp1147
ag4
(g8
S'=\xa1D\xef\x07\xd0\x12@'
p1148
tp1149
Rp1150
ag4
(g8
S'\x88\\[\x92(1\xf9\xbf'
p1151
tp1152
Rp1153
ag4
(g8
S'\x88\\[\x92(1\xf9\xbf'
p1154
tp1155
Rp1156
ag4
(g8
S'\x88\\[\x92(1\xf9\xbf'
p1157
tp1158
Rp1159
ag4
(g8
S'\x88\\[\x92(1\xf9\xbf'
p1160
tp1161
Rp1162
ag4
(g8
S'\x88\\[\x92(1\xf9\xbf'
p1163
tp1164
Rp1165
ag4
(g8
S'\x98\xbd\xfbfEn\x1f\xc0'
p1166
tp1167
Rp1168
ag4
(g8
S'\x98\xbd\xfbfEn\x1f\xc0'
p1169
tp1170
Rp1171
ag4
(g8
S'\x9d&\xb5\xb0<\x17\xf9\xbf'
p1172
tp1173
Rp1174
ag4
(g8
S'#\xa9.\x1fL\xc2\xf8\xbf'
p1175
tp1176
Rp1177
ag4
(g8
S'\xed\xb8f\xb1[m\xf8\xbf'
p1178
tp1179
Rp1180
ag4
(g8
S's;\xe0\x1fk\x18\xf8\xbf'
p1181
tp1182
Rp1183
ag4
(g8
S'\x1b\xb8\x84}\xc0\xea\xf7\xbf'
p1184
tp1185
Rp1186
ag4
(g8
S'P\x9b\xc2\xe4\xb4>\xf8\xbf'
p1187
tp1188
Rp1189
ag4
(g8
S'\x84~\x00L\xa9\x92\xf8\xbf'
p1190
tp1191
Rp1192
ag4
(g8
S'\xb9a>\xb3\x9d\xe6\xf8\xbf'
p1193
tp1194
Rp1195
ag4
(g8
S'G\x95^\x0cEm\x1f\xc0'
p1196
tp1197
Rp1198
ag4
(g8
S"\xff-(\x04'-\xf9\xbf"
p1199
tp1200
Rp1201
ag4
(g8
S"\xff-(\x04'-\xf9\xbf"
p1202
tp1203
Rp1204
ag4
(g8
S'\xea\xc4)\x9c\xb1\xd6\x12@'
p1205
tp1206
Rp1207
ag4
(g8
S'\xea\xc4)\x9c\xb1\xd6\x12@'
p1208
tp1209
Rp1210
ag4
(g8
S'\xea\xc4)\x9c\xb1\xd6\x12@'
p1211
tp1212
Rp1213
ag4
(g8
S'\xea\xc4)\x9c\xb1\xd6\x12@'
p1214
tp1215
Rp1216
ag4
(g8
S'\xea\xc4)\x9c\xb1\xd6\x12@'
p1217
tp1218
Rp1219
ag4
(g8
S'\xea\xc4)\x9c\xb1\xd6\x12@'
p1220
tp1221
Rp1222
ag4
(g8
S'\xea\xc4)\x9c\xb1\xd6\x12@'
p1223
tp1224
Rp1225
ag4
(g8
S'\xea\xc4)\x9c\xb1\xd6\x12@'
p1226
tp1227
Rp1228
ag4
(g8
S'\xea\xc4)\x9c\xb1\xd6\x12@'
p1229
tp1230
Rp1231
ag4
(g8
S'\xea\xc4)\x9c\xb1\xd6\x12@'
p1232
tp1233
Rp1234
ag4
(g8
S'\xea\xc4)\x9c\xb1\xd6\x12@'
p1235
tp1236
Rp1237
ag4
(g8
S'\xea\xc4)\x9c\xb1\xd6\x12@'
p1238
tp1239
Rp1240
ag4
(g8
S'\xea\xc4)\x9c\xb1\xd6\x12@'
p1241
tp1242
Rp1243
ag4
(g8
S'\xea\xc4)\x9c\xb1\xd6\x12@'
p1244
tp1245
Rp1246
ag4
(g8
S'\xea\xc4)\x9c\xb1\xd6\x12@'
p1247
tp1248
Rp1249
ag4
(g8
S'\xea\xc4)\x9c\xb1\xd6\x12@'
p1250
tp1251
Rp1252
ag4
(g8
S'\xea\xc4)\x9c\xb1\xd6\x12@'
p1253
tp1254
Rp1255
ag4
(g8
S'\xea\xc4)\x9c\xb1\xd6\x12@'
p1256
tp1257
Rp1258
ag4
(g8
S'\xea\xc4)\x9c\xb1\xd6\x12@'
p1259
tp1260
Rp1261
ag4
(g8
S'\xea\xc4)\x9c\xb1\xd6\x12@'
p1262
tp1263
Rp1264
ag4
(g8
S'\xea\xc4)\x9c\xb1\xd6\x12@'
p1265
tp1266
Rp1267
ag4
(g8
S'\xea\xc4)\x9c\xb1\xd6\x12@'
p1268
tp1269
Rp1270
ag4
(g8
S'\xea\xc4)\x9c\xb1\xd6\x12@'
p1271
tp1272
Rp1273
ag4
(g8
S'\xea\xc4)\x9c\xb1\xd6\x12@'
p1274
tp1275
Rp1276
ag4
(g8
S'\xea\xc4)\x9c\xb1\xd6\x12@'
p1277
tp1278
Rp1279
ag4
(g8
S'\xea\xc4)\x9c\xb1\xd6\x12@'
p1280
tp1281
Rp1282
ag4
(g8
S'\xea\xc4)\x9c\xb1\xd6\x12@'
p1283
tp1284
Rp1285
ag4
(g8
S'\xea\xc4)\x9c\xb1\xd6\x12@'
p1286
tp1287
Rp1288
ag4
(g8
S'\xea\xc4)\x9c\xb1\xd6\x12@'
p1289
tp1290
Rp1291
ag4
(g8
S'\xea\xc4)\x9c\xb1\xd6\x12@'
p1292
tp1293
Rp1294
ag4
(g8
S'\xea\xc4)\x9c\xb1\xd6\x12@'
p1295
tp1296
Rp1297
ag4
(g8
S'\xea\xc4)\x9c\xb1\xd6\x12@'
p1298
tp1299
Rp1300
ag4
(g8
S'\xea\xc4)\x9c\xb1\xd6\x12@'
p1301
tp1302
Rp1303
ag4
(g8
S'\xea\xc4)\x9c\xb1\xd6\x12@'
p1304
tp1305
Rp1306
ag4
(g8
S'\xea\xc4)\x9c\xb1\xd6\x12@'
p1307
tp1308
Rp1309
ag4
(g8
S'\xea\xc4)\x9c\xb1\xd6\x12@'
p1310
tp1311
Rp1312
ag4
(g8
S'\xea\xc4)\x9c\xb1\xd6\x12@'
p1313
tp1314
Rp1315
ag4
(g8
S'\xea\xc4)\x9c\xb1\xd6\x12@'
p1316
tp1317
Rp1318
ag4
(g8
S'\xea\xc4)\x9c\xb1\xd6\x12@'
p1319
tp1320
Rp1321
ag4
(g8
S'\xea\xc4)\x9c\xb1\xd6\x12@'
p1322
tp1323
Rp1324
ag4
(g8
S'\xea\xc4)\x9c\xb1\xd6\x12@'
p1325
tp1326
Rp1327
ag4
(g8
S'\xea\xc4)\x9c\xb1\xd6\x12@'
p1328
tp1329
Rp1330
ag4
(g8
S'\xea\xc4)\x9c\xb1\xd6\x12@'
p1331
tp1332
Rp1333
ag4
(g8
S'\xea\xc4)\x9c\xb1\xd6\x12@'
p1334
tp1335
Rp1336
ag4
(g8
S'\xea\xc4)\x9c\xb1\xd6\x12@'
p1337
tp1338
Rp1339
ag4
(g8
S'\xea\xc4)\x9c\xb1\xd6\x12@'
p1340
tp1341
Rp1342
ag4
(g8
S'\xa8koQ&-\xf9\xbf'
p1343
tp1344
Rp1345
ag4
(g8
S'\xa8koQ&-\xf9\xbf'
p1346
tp1347
Rp1348
ag4
(g8
S'\xa8koQ&-\xf9\xbf'
p1349
tp1350
Rp1351
ag4
(g8
S'\xa8koQ&-\xf9\xbf'
p1352
tp1353
Rp1354
ag4
(g8
S'\xa8koQ&-\xf9\xbf'
p1355
tp1356
Rp1357
ag4
(g8
S'\xa8koQ&-\xf9\xbf'
p1358
tp1359
Rp1360
ag4
(g8
S'\xa8koQ&-\xf9\xbf'
p1361
tp1362
Rp1363
ag4
(g8
S'\xa8koQ&-\xf9\xbf'
p1364
tp1365
Rp1366
ag4
(g8
S'\x8a\\\xb1\xab\xaaz\x11@'
p1367
tp1368
Rp1369
ag4
(g8
S'\x98\xf9\xea\xf8\xe1Z\r@'
p1370
tp1371
Rp1372
ag4
(g8
S'`\xc71\xben\xc0\x07@'
p1373
tp1374
Rp1375
ag4
(g8
S'\xd0\xcb7\xc6!\xc5\x04@'
p1376
tp1377
Rp1378
ag4
(g8
S'\xd0\xcb7\xc6!\xc5\x04@'
p1379
tp1380
Rp1381
ag4
(g8
S'\xa6m\x12\xb6V\x9e\x04@'
p1382
tp1383
Rp1384
ag4
(g8
S'\xc8u\x81[P:\x04@'
p1385
tp1386
Rp1387
ag4
(g8
S'\xa6\xf01\xddI\xd6\x03@'
p1388
tp1389
Rp1390
ag4
(g8
S'\x0e\x86_\xa6Cr\x03@'
p1391
tp1392
Rp1393
ag4
(g8
S'\xeb\x00\x10(=\x0e\x03@'
p1394
tp1395
Rp1396
ag4
(g8
S'\x05\x81\x80}\xef\xcd\x02@'
p1397
tp1398
Rp1399
ag4
(g8
S'\x05\x81\x80}\xef\xcd\x02@'
p1400
tp1401
Rp1402
ag4
(g8
S'\x05\x81\x80}\xef\xcd\x02@'
p1403
tp1404
Rp1405
ag4
(g8
S'\x05\x81\x80}\xef\xcd\x02@'
p1406
tp1407
Rp1408
ag4
(g8
S'\x05\x81\x80}\xef\xcd\x02@'
p1409
tp1410
Rp1411
ag4
(g8
S'\x05\x81\x80}\xef\xcd\x02@'
p1412
tp1413
Rp1414
ag4
(g8
S'\x05\x81\x80}\xef\xcd\x02@'
p1415
tp1416
Rp1417
ag4
(g8
S'\x05\x81\x80}\xef\xcd\x02@'
p1418
tp1419
Rp1420
ag4
(g8
S'\x05\x81\x80}\xef\xcd\x02@'
p1421
tp1422
Rp1423
ag4
(g8
S'\x05\x81\x80}\xef\xcd\x02@'
p1424
tp1425
Rp1426
ag4
(g8
S'\x05\x81\x80}\xef\xcd\x02@'
p1427
tp1428
Rp1429
ag4
(g8
S'\x05\x81\x80}\xef\xcd\x02@'
p1430
tp1431
Rp1432
ag4
(g8
S'\x05\x81\x80}\xef\xcd\x02@'
p1433
tp1434
Rp1435
ag4
(g8
S'\x05\x81\x80}\xef\xcd\x02@'
p1436
tp1437
Rp1438
ag4
(g8
S'\x05\x81\x80}\xef\xcd\x02@'
p1439
tp1440
Rp1441
ag4
(g8
S'\x05\x81\x80}\xef\xcd\x02@'
p1442
tp1443
Rp1444
ag4
(g8
S'\x05\x81\x80}\xef\xcd\x02@'
p1445
tp1446
Rp1447
ag4
(g8
S'\x05\x81\x80}\xef\xcd\x02@'
p1448
tp1449
Rp1450
ag4
(g8
S'\x05\x81\x80}\xef\xcd\x02@'
p1451
tp1452
Rp1453
ag4
(g8
S'\x05\x81\x80}\xef\xcd\x02@'
p1454
tp1455
Rp1456
ag4
(g8
S'\x05\x81\x80}\xef\xcd\x02@'
p1457
tp1458
Rp1459
ag4
(g8
S'\x05\x81\x80}\xef\xcd\x02@'
p1460
tp1461
Rp1462
ag4
(g8
S'K\xa9WK\x95e\x0f\xc0'
p1463
tp1464
Rp1465
ag4
(g8
S'\n\x01\xa5U\xa9;\x0f\xc0'
p1466
tp1467
Rp1468
ag4
(g8
S'\x0e\xe6\xb0\x83\xbd\x11\x0f\xc0'
p1469
tp1470
Rp1471
ag4
(g8
S'\x13\xcb\xbc\xb1\xd1\xe7\x0e\xc0'
p1472
tp1473
Rp1474
ag4
(g8
S'\x17\xb0\xc8\xdf\xe5\xbd\x0e\xc0'
p1475
tp1476
Rp1477
ag4
(g8
S'\x1b\x95\xd4\r\xfa\x93\x0e\xc0'
p1478
tp1479
Rp1480
ag4
(g8
S'\x1fz\xe0;\x0ej\x0e\xc0'
p1481
tp1482
Rp1483
ag4
(g8
S'#_\xeci"@\x0e\xc0'
p1484
tp1485
Rp1486
ag4
(g8
S'\xe3\xb69t6\x16\x0e\xc0'
p1487
tp1488
Rp1489
ag4
(g8
S'\x10a\xa3\xc4\xc1\x01\x0e\xc0'
p1490
tp1491
Rp1492
ag4
(g8
S'u\xcb\x94Pc\xe6\x0e\xc0'
p1493
tp1494
Rp1495
ag4
(g8
S'\x95\xa8\xc7\xb8\x04\xcb\x0f\xc0'
p1496
tp1497
Rp1498
ag4
(g8
S'\xdbB}\x10\xd3W\x10\xc0'
p1499
tp1500
Rp1501
ag4
(g8
S'\r\xf8u\xd6#\xca\x10\xc0'
p1502
tp1503
Rp1504
ag4
(g8
S'\x9df\x8f\x8at<\x11\xc0'
p1505
tp1506
Rp1507
ag4
(g8
S'\xd0\x1b\x88P\xc5\xae\x11\xc0'
p1508
tp1509
Rp1510
ag4
(g8
S'\x02\xd1\x80\x16\x16!\x12\xc0'
p1511
tp1512
Rp1513
ag4
(g8
S'\x93?\x9a\xcaf\x93\x12\xc0'
p1514
tp1515
Rp1516
ag4
(g8
S'N\xe4|\xcd\xf3\xd8\x12\xc0'
p1517
tp1518
Rp1519
ag4
(g8
S'N\xe4|\xcd\xf3\xd8\x12\xc0'
p1520
tp1521
Rp1522
ag4
(g8
S'N\xe4|\xcd\xf3\xd8\x12\xc0'
p1523
tp1524
Rp1525
ag4
(g8
S'\x15\xee"\x8c\x1d$\xf9?'
p1526
tp1527
Rp1528
ag4
(g8
S'\x15\xee"\x8c\x1d$\xf9?'
p1529
tp1530
Rp1531
ag4
(g8
S'\x15\xee"\x8c\x1d$\xf9?'
p1532
tp1533
Rp1534
ag4
(g8
S'\x15\xee"\x8c\x1d$\xf9?'
p1535
tp1536
Rp1537
ag4
(g8
S'\x15\xee"\x8c\x1d$\xf9?'
p1538
tp1539
Rp1540
ag4
(g8
S'\x15\xee"\x8c\x1d$\xf9?'
p1541
tp1542
Rp1543
ag4
(g8
S'\x15\xee"\x8c\x1d$\xf9?'
p1544
tp1545
Rp1546
ag4
(g8
S'\x15\xee"\x8c\x1d$\xf9?'
p1547
tp1548
Rp1549
ag4
(g8
S'\x15\xee"\x8c\x1d$\xf9?'
p1550
tp1551
Rp1552
ag4
(g8
S'\x15\xee"\x8c\x1d$\xf9?'
p1553
tp1554
Rp1555
ag4
(g8
S'\x15\xee"\x8c\x1d$\xf9?'
p1556
tp1557
Rp1558
ag4
(g8
S'\x15\xee"\x8c\x1d$\xf9?'
p1559
tp1560
Rp1561
ag4
(g8
S'\x15\xee"\x8c\x1d$\xf9?'
p1562
tp1563
Rp1564
ag4
(g8
S'\x15\xee"\x8c\x1d$\xf9?'
p1565
tp1566
Rp1567
ag4
(g8
S'W\xfb\xe7\xb1\x17m\xf8?'
p1568
tp1569
Rp1570
ag4
(g8
S'\x1a\xb7\x93\xa3JZ\xf7?'
p1571
tp1572
Rp1573
ag4
(g8
S'g\x8d\xbc\xdc}G\xf6?'
p1574
tp1575
Rp1576
ag4
(g8
S'o\xd6&\xf2\xb04\xf5?'
p1577
tp1578
Rp1579
ag4
(g8
S'2\x92\xd2\xe3\xe3!\xf4?'
p1580
tp1581
Rp1582
ag4
(g8
S'\x7fh\xfb\x1c\x17\x0f\xf3?'
p1583
tp1584
Rp1585
ag4
(g8
S'\x87\xb1e2J\xfc\xf1?'
p1586
tp1587
Rp1588
ag4
(g8
S'\x8f\xfa\xcfG}\xe9\xf0?'
p1589
tp1590
Rp1591
ag4
(g8
S'\xe9\xf9\xb5\x96`\xad\xef?'
p1592
tp1593
Rp1594
ag4
(g8
S'>\x19I\xe5\xc6\x87\xed?'
p1595
tp1596
Rp1597
ag4
(g8
S'Z"wX2O\xeb?'
p1598
tp1599
Rp1600
ag4
(g8
S'\xb4\x81BH\x9c\x8c\xe8?'
p1601
tp1602
Rp1603
ag4
(g8
S'\x0e\xe1\r8\x06\xca\xe5?'
p1604
tp1605
Rp1606
ag4
(g8
S'#\xb3\x1a\x04p\x07\xe3?'
p1607
tp1608
Rp1609
ag4
(g8
S'}\x12\xe6\xf3\xd9D\xe0?'
p1610
tp1611
Rp1612
ag4
(g8
S'\xad\xe3b\xc7\x87\x04\xdb?'
p1613
tp1614
Rp1615
ag4
(g8
S'a\xa2\xf9\xa6[\x7f\xd5?'
p1616
tp1617
Rp1618
ag4
(g8
S'\xe44b\xe9^\xf4\xcf?'
p1619
tp1620
Rp1621
ag4
(g8
S'\x06%\xd1\x84\x06\xea\xc4?'
p1622
tp1623
Rp1624
ag4
(g8
S'R*\x80@\\\xbf\xb3?'
p1625
tp1626
Rp1627
ag4
(g8
S'\xf1\xe8V\x92\xa3\xaa\x82\xbf'
p1628
tp1629
Rp1630
ag4
(g8
S'\x10\xf9\xb7J:-\x97\xbf'
p1631
tp1632
Rp1633
ag4
(g8
S'\x10\xf9\xb7J:-\x97\xbf'
p1634
tp1635
Rp1636
ag4
(g8
S'\x10\xf9\xb7J:-\x97\xbf'
p1637
tp1638
Rp1639
ag4
(g8
S'\x10\xf9\xb7J:-\x97\xbf'
p1640
tp1641
Rp1642
ag4
(g8
S'\x10\xf9\xb7J:-\x97\xbf'
p1643
tp1644
Rp1645
ag4
(g8
S'\x10\xf9\xb7J:-\x97\xbf'
p1646
tp1647
Rp1648
ag4
(g8
S'\x10\xf9\xb7J:-\x97\xbf'
p1649
tp1650
Rp1651
ag4
(g8
S'\x10\xf9\xb7J:-\x97\xbf'
p1652
tp1653
Rp1654
ag4
(g8
S'\x10\xf9\xb7J:-\x97\xbf'
p1655
tp1656
Rp1657
ag4
(g8
S'\x10\xf9\xb7J:-\x97\xbf'
p1658
tp1659
Rp1660
ag4
(g8
S'\x10\xf9\xb7J:-\x97\xbf'
p1661
tp1662
Rp1663
ag4
(g8
S'\x10\xf9\xb7J:-\x97\xbf'
p1664
tp1665
Rp1666
ag4
(g8
S'n\x08\xa3x(9\x19\xc0'
p1667
tp1668
Rp1669
ag4
(g8
S'\x11\x16\xfa\xa5\x1cC\xaa\xbf'
p1670
tp1671
Rp1672
ag4
(g8
S'\x9d\xe8\xd5\\u|\xbf\xbf'
p1673
tp1674
Rp1675
ag4
(g8
S'v\x1cx!\xae\xeb\xc8\xbf'
p1676
tp1677
Rp1678
ag4
(g8
S'O\xa2B\xca\x90\x0c\xd1\xbf'
p1679
tp1680
Rp1681
ag4
(g8
S'\xa7\xc3\x87\xa7J\xa3\xd5\xbf'
p1682
tp1683
Rp1684
ag4
(g8
S'\xbbW\x0ea\x04:\xda\xbf'
p1685
tp1686
Rp1687
ag4
(g8
S'\xff#\xd7{H\xcb\xe3\xbf'
p1688
tp1689
Rp1690
ag4
(g8
S'\x1e\xce\x1bX\xd64\xeb\xbf'
p1691
tp1692
Rp1693
ag4
(g8
S'\xc0\x82\x0f,2O\xf1\xbf'
p1694
tp1695
Rp1696
ag4
(g8
S'\x14e\xf0=\xf9\x03\xf5\xbf'
p1697
tp1698
Rp1699
ag4
(g8
S'\x82s3\x1a\xc0\xb8\xf8\xbf'
p1700
tp1701
Rp1702
ag4
(g8
S"\xff-(\x04'-\xf9\xbf"
p1703
tp1704
Rp1705
ag4
(g8
S'\xea\xc4)\x9c\xb1\xd6\x12@'
p1706
tp1707
Rp1708
ag4
(g8
S'\xea\xc4)\x9c\xb1\xd6\x12@'
p1709
tp1710
Rp1711
ag4
(g8
S'\xea\xc4)\x9c\xb1\xd6\x12@'
p1712
tp1713
Rp1714
ag4
(g8
S'\xea\xc4)\x9c\xb1\xd6\x12@'
p1715
tp1716
Rp1717
ag4
(g8
S'\xea\xc4)\x9c\xb1\xd6\x12@'
p1718
tp1719
Rp1720
ag4
(g8
S'\xea\xc4)\x9c\xb1\xd6\x12@'
p1721
tp1722
Rp1723
ag4
(g8
S'\xea\xc4)\x9c\xb1\xd6\x12@'
p1724
tp1725
Rp1726
ag4
(g8
S'\xea\xc4)\x9c\xb1\xd6\x12@'
p1727
tp1728
Rp1729
ag4
(g8
S'\xea\xc4)\x9c\xb1\xd6\x12@'
p1730
tp1731
Rp1732
ag4
(g8
S'\xea\xc4)\x9c\xb1\xd6\x12@'
p1733
tp1734
Rp1735
ag4
(g8
S'\xea\xc4)\x9c\xb1\xd6\x12@'
p1736
tp1737
Rp1738
ag4
(g8
S'\xea\xc4)\x9c\xb1\xd6\x12@'
p1739
tp1740
Rp1741
ag4
(g8
S'\xea\xc4)\x9c\xb1\xd6\x12@'
p1742
tp1743
Rp1744
ag4
(g8
S'\xea\xc4)\x9c\xb1\xd6\x12@'
p1745
tp1746
Rp1747
ag4
(g8
S'\xea\xc4)\x9c\xb1\xd6\x12@'
p1748
tp1749
Rp1750
ag4
(g8
S'\xea\xc4)\x9c\xb1\xd6\x12@'
p1751
tp1752
Rp1753
ag4
(g8
S'\xea\xc4)\x9c\xb1\xd6\x12@'
p1754
tp1755
Rp1756
ag4
(g8
S'\xea\xc4)\x9c\xb1\xd6\x12@'
p1757
tp1758
Rp1759
ag4
(g8
S'\xea\xc4)\x9c\xb1\xd6\x12@'
p1760
tp1761
Rp1762
ag4
(g8
S'\xea\xc4)\x9c\xb1\xd6\x12@'
p1763
tp1764
Rp1765
ag4
(g8
S'\xea\xc4)\x9c\xb1\xd6\x12@'
p1766
tp1767
Rp1768
ag4
(g8
S'\xea\xc4)\x9c\xb1\xd6\x12@'
p1769
tp1770
Rp1771
ag4
(g8
S'\xea\xc4)\x9c\xb1\xd6\x12@'
p1772
tp1773
Rp1774
ag4
(g8
S'\xea\xc4)\x9c\xb1\xd6\x12@'
p1775
tp1776
Rp1777
ag4
(g8
S'\xea\xc4)\x9c\xb1\xd6\x12@'
p1778
tp1779
Rp1780
ag4
(g8
S'\xea\xc4)\x9c\xb1\xd6\x12@'
p1781
tp1782
Rp1783
ag4
(g8
S'\xea\xc4)\x9c\xb1\xd6\x12@'
p1784
tp1785
Rp1786
ag4
(g8
S'\xea\xc4)\x9c\xb1\xd6\x12@'
p1787
tp1788
Rp1789
ag4
(g8
S'\xea\xc4)\x9c\xb1\xd6\x12@'
p1790
tp1791
Rp1792
ag4
(g8
S'\xea\xc4)\x9c\xb1\xd6\x12@'
p1793
tp1794
Rp1795
ag4
(g8
S'\xea\xc4)\x9c\xb1\xd6\x12@'
p1796
tp1797
Rp1798
ag4
(g8
S'\xea\xc4)\x9c\xb1\xd6\x12@'
p1799
tp1800
Rp1801
ag4
(g8
S'\xea\xc4)\x9c\xb1\xd6\x12@'
p1802
tp1803
Rp1804
ag4
(g8
S'\xea\xc4)\x9c\xb1\xd6\x12@'
p1805
tp1806
Rp1807
ag4
(g8
S'\xea\xc4)\x9c\xb1\xd6\x12@'
p1808
tp1809
Rp1810
ag4
(g8
S'\xea\xc4)\x9c\xb1\xd6\x12@'
p1811
tp1812
Rp1813
ag4
(g8
S'\xea\xc4)\x9c\xb1\xd6\x12@'
p1814
tp1815
Rp1816
ag4
(g8
S'\xea\xc4)\x9c\xb1\xd6\x12@'
p1817
tp1818
Rp1819
ag4
(g8
S'\xea\xc4)\x9c\xb1\xd6\x12@'
p1820
tp1821
Rp1822
ag4
(g8
S'\xea\xc4)\x9c\xb1\xd6\x12@'
p1823
tp1824
Rp1825
ag4
(g8
S'\xea\xc4)\x9c\xb1\xd6\x12@'
p1826
tp1827
Rp1828
ag4
(g8
S'\xea\xc4)\x9c\xb1\xd6\x12@'
p1829
tp1830
Rp1831
ag4
(g8
S'\xea\xc4)\x9c\xb1\xd6\x12@'
p1832
tp1833
Rp1834
ag4
(g8
S'\xea\xc4)\x9c\xb1\xd6\x12@'
p1835
tp1836
Rp1837
ag4
(g8
S'\xea\xc4)\x9c\xb1\xd6\x12@'
p1838
tp1839
Rp1840
ag4
(g8
S'\xea\xc4)\x9c\xb1\xd6\x12@'
p1841
tp1842
Rp1843
ag4
(g8
S'\xea\xc4)\x9c\xb1\xd6\x12@'
p1844
tp1845
Rp1846
ag4
(g8
S'\xea\xc4)\x9c\xb1\xd6\x12@'
p1847
tp1848
Rp1849
ag4
(g8
S'\xea\xc4)\x9c\xb1\xd6\x12@'
p1850
tp1851
Rp1852
ag4
(g8
S'\xea\xc4)\x9c\xb1\xd6\x12@'
p1853
tp1854
Rp1855
ag4
(g8
S'\xea\xc4)\x9c\xb1\xd6\x12@'
p1856
tp1857
Rp1858
ag4
(g8
S'\xea\xc4)\x9c\xb1\xd6\x12@'
p1859
tp1860
Rp1861
ag4
(g8
S'\xea\xc4)\x9c\xb1\xd6\x12@'
p1862
tp1863
Rp1864
ag4
(g8
S'\xea\xc4)\x9c\xb1\xd6\x12@'
p1865
tp1866
Rp1867
ag4
(g8
S'\xea\xc4)\x9c\xb1\xd6\x12@'
p1868
tp1869
Rp1870
ag4
(g8
S'\xea\xc4)\x9c\xb1\xd6\x12@'
p1871
tp1872
Rp1873
ag4
(g8
S'\xea\xc4)\x9c\xb1\xd6\x12@'
p1874
tp1875
Rp1876
ag4
(g8
S'\xea\xc4)\x9c\xb1\xd6\x12@'
p1877
tp1878
Rp1879
ag4
(g8
S'\xea\xc4)\x9c\xb1\xd6\x12@'
p1880
tp1881
Rp1882
ag4
(g8
S'\xea\xc4)\x9c\xb1\xd6\x12@'
p1883
tp1884
Rp1885
ag4
(g8
S'\xea\xc4)\x9c\xb1\xd6\x12@'
p1886
tp1887
Rp1888
ag4
(g8
S'\xea\xc4)\x9c\xb1\xd6\x12@'
p1889
tp1890
Rp1891
ag4
(g8
S'\xea\xc4)\x9c\xb1\xd6\x12@'
p1892
tp1893
Rp1894
ag4
(g8
S'\xea\xc4)\x9c\xb1\xd6\x12@'
p1895
tp1896
Rp1897
ag4
(g8
S'\xea\xc4)\x9c\xb1\xd6\x12@'
p1898
tp1899
Rp1900
ag4
(g8
S'\xea\xc4)\x9c\xb1\xd6\x12@'
p1901
tp1902
Rp1903
ag4
(g8
S'\xea\xc4)\x9c\xb1\xd6\x12@'
p1904
tp1905
Rp1906
ag4
(g8
S'\xea\xc4)\x9c\xb1\xd6\x12@'
p1907
tp1908
Rp1909
ag4
(g8
S'\xea\xc4)\x9c\xb1\xd6\x12@'
p1910
tp1911
Rp1912
ag4
(g8
S'\xea\xc4)\x9c\xb1\xd6\x12@'
p1913
tp1914
Rp1915
ag4
(g8
S'\xea\xc4)\x9c\xb1\xd6\x12@'
p1916
tp1917
Rp1918
ag4
(g8
S'\xea\xc4)\x9c\xb1\xd6\x12@'
p1919
tp1920
Rp1921
ag4
(g8
S'\xea\xc4)\x9c\xb1\xd6\x12@'
p1922
tp1923
Rp1924
ag4
(g8
S'\xea\xc4)\x9c\xb1\xd6\x12@'
p1925
tp1926
Rp1927
ag4
(g8
S'\xea\xc4)\x9c\xb1\xd6\x12@'
p1928
tp1929
Rp1930
ag4
(g8
S'\xea\xc4)\x9c\xb1\xd6\x12@'
p1931
tp1932
Rp1933
ag4
(g8
S'\xea\xc4)\x9c\xb1\xd6\x12@'
p1934
tp1935
Rp1936
ag4
(g8
S'\xea\xc4)\x9c\xb1\xd6\x12@'
p1937
tp1938
Rp1939
ag4
(g8
S'\xea\xc4)\x9c\xb1\xd6\x12@'
p1940
tp1941
Rp1942
ag4
(g8
S'\xea\xc4)\x9c\xb1\xd6\x12@'
p1943
tp1944
Rp1945
ag4
(g8
S'\xea\xc4)\x9c\xb1\xd6\x12@'
p1946
tp1947
Rp1948
ag4
(g8
S'\xea\xc4)\x9c\xb1\xd6\x12@'
p1949
tp1950
Rp1951
ag4
(g8
S'\xea\xc4)\x9c\xb1\xd6\x12@'
p1952
tp1953
Rp1954
ag4
(g8
S'\xea\xc4)\x9c\xb1\xd6\x12@'
p1955
tp1956
Rp1957
ag4
(g8
S'\xea\xc4)\x9c\xb1\xd6\x12@'
p1958
tp1959
Rp1960
ag4
(g8
S'\xea\xc4)\x9c\xb1\xd6\x12@'
p1961
tp1962
Rp1963
ag4
(g8
S'\xea\xc4)\x9c\xb1\xd6\x12@'
p1964
tp1965
Rp1966
ag4
(g8
S'\xea\xc4)\x9c\xb1\xd6\x12@'
p1967
tp1968
Rp1969
ag4
(g8
S'\xea\xc4)\x9c\xb1\xd6\x12@'
p1970
tp1971
Rp1972
ag4
(g8
S'\xea\xc4)\x9c\xb1\xd6\x12@'
p1973
tp1974
Rp1975
ag4
(g8
S'\xea\xc4)\x9c\xb1\xd6\x12@'
p1976
tp1977
Rp1978
ag4
(g8
S'\xea\xc4)\x9c\xb1\xd6\x12@'
p1979
tp1980
Rp1981
ag4
(g8
S'\xea\xc4)\x9c\xb1\xd6\x12@'
p1982
tp1983
Rp1984
ag4
(g8
S'\xea\xc4)\x9c\xb1\xd6\x12@'
p1985
tp1986
Rp1987
ag4
(g8
S'\xea\xc4)\x9c\xb1\xd6\x12@'
p1988
tp1989
Rp1990
ag4
(g8
S'\xea\xc4)\x9c\xb1\xd6\x12@'
p1991
tp1992
Rp1993
ag4
(g8
S'\xea\xc4)\x9c\xb1\xd6\x12@'
p1994
tp1995
Rp1996
ag4
(g8
S'\xea\xc4)\x9c\xb1\xd6\x12@'
p1997
tp1998
Rp1999
ag4
(g8
S'\xea\xc4)\x9c\xb1\xd6\x12@'
p2000
tp2001
Rp2002
ag4
(g8
S'\xea\xc4)\x9c\xb1\xd6\x12@'
p2003
tp2004
Rp2005
ag4
(g8
S'\xea\xc4)\x9c\xb1\xd6\x12@'
p2006
tp2007
Rp2008
ag4
(g8
S'\xea\xc4)\x9c\xb1\xd6\x12@'
p2009
tp2010
Rp2011
ag4
(g8
S'\xea\xc4)\x9c\xb1\xd6\x12@'
p2012
tp2013
Rp2014
ag4
(g8
S'\xea\xc4)\x9c\xb1\xd6\x12@'
p2015
tp2016
Rp2017
ag4
(g8
S'\xea\xc4)\x9c\xb1\xd6\x12@'
p2018
tp2019
Rp2020
ag4
(g8
S'\xea\xc4)\x9c\xb1\xd6\x12@'
p2021
tp2022
Rp2023
ag4
(g8
S'\xea\xc4)\x9c\xb1\xd6\x12@'
p2024
tp2025
Rp2026
ag4
(g8
S'\xea\xc4)\x9c\xb1\xd6\x12@'
p2027
tp2028
Rp2029
ag4
(g8
S'\xea\xc4)\x9c\xb1\xd6\x12@'
p2030
tp2031
Rp2032
ag4
(g8
S'\xea\xc4)\x9c\xb1\xd6\x12@'
p2033
tp2034
Rp2035
ag4
(g8
S'\xea\xc4)\x9c\xb1\xd6\x12@'
p2036
tp2037
Rp2038
ag4
(g8
S'\xea\xc4)\x9c\xb1\xd6\x12@'
p2039
tp2040
Rp2041
ag4
(g8
S'\xea\xc4)\x9c\xb1\xd6\x12@'
p2042
tp2043
Rp2044
ag4
(g8
S'\xea\xc4)\x9c\xb1\xd6\x12@'
p2045
tp2046
Rp2047
ag4
(g8
S'\xea\xc4)\x9c\xb1\xd6\x12@'
p2048
tp2049
Rp2050
ag4
(g8
S'\xea\xc4)\x9c\xb1\xd6\x12@'
p2051
tp2052
Rp2053
ag4
(g8
S'\xea\xc4)\x9c\xb1\xd6\x12@'
p2054
tp2055
Rp2056
ag4
(g8
S'\xea\xc4)\x9c\xb1\xd6\x12@'
p2057
tp2058
Rp2059
ag4
(g8
S'\xea\xc4)\x9c\xb1\xd6\x12@'
p2060
tp2061
Rp2062
ag4
(g8
S'\xea\xc4)\x9c\xb1\xd6\x12@'
p2063
tp2064
Rp2065
ag4
(g8
S'\xea\xc4)\x9c\xb1\xd6\x12@'
p2066
tp2067
Rp2068
ag4
(g8
S'\xea\xc4)\x9c\xb1\xd6\x12@'
p2069
tp2070
Rp2071
ag4
(g8
S'\xea\xc4)\x9c\xb1\xd6\x12@'
p2072
tp2073
Rp2074
ag4
(g8
S'\xea\xc4)\x9c\xb1\xd6\x12@'
p2075
tp2076
Rp2077
ag4
(g8
S'\xea\xc4)\x9c\xb1\xd6\x12@'
p2078
tp2079
Rp2080
ag4
(g8
S'\xea\xc4)\x9c\xb1\xd6\x12@'
p2081
tp2082
Rp2083
ag4
(g8
S'\xea\xc4)\x9c\xb1\xd6\x12@'
p2084
tp2085
Rp2086
ag4
(g8
S'\xc1Op2\x01\xd7\x12@'
p2087
tp2088
Rp2089
ag4
(g8
S'D\xfe\xb5\xa6\x19\xdb\x12@'
p2090
tp2091
Rp2092
ag4
(g8
S'\x0b:\xba>2\xdf\x12@'
p2093
tp2094
Rp2095
ag4
(g8
S'\xd2u\xbe\xd6J\xe3\x12@'
p2096
tp2097
Rp2098
ag4
(g8
S'\x99\xb1\xc2nc\xe7\x12@'
p2099
tp2100
Rp2101
ag4
(g8
S'`\xed\xc6\x06|\xeb\x12@'
p2102
tp2103
Rp2104
ag4
(g8
S'\xe3\x9b\x0c{\x94\xef\x12@'
p2105
tp2106
Rp2107
ag4
(g8
S'\xaa\xd7\x10\x13\xad\xf3\x12@'
p2108
tp2109
Rp2110
ag4
(g8
S'q\x13\x15\xab\xc5\xf7\x12@'
p2111
tp2112
Rp2113
ag4
(g8
S'8O\x19C\xde\xfb\x12@'
p2114
tp2115
Rp2116
ag4
(g8
S'\xff\x8a\x1d\xdb\xf6\xff\x12@'
p2117
tp2118
Rp2119
ag4
(g8
S'\xc7\xc6!s\x0f\x04\x13@'
p2120
tp2121
Rp2122
ag4
(g8
S'\x8e\x02&\x0b(\x08\x13@'
p2123
tp2124
Rp2125
ag4
(g8
S'U>*\xa3@\x0c\x13@'
p2126
tp2127
Rp2128
ag4
(g8
S'\x1cz.;Y\x10\x13@'
p2129
tp2130
Rp2131
ag4
(g8
S'\x90p\xc5o\xee\x13\x13@'
p2132
tp2133
Rp2134
ag4
(g8
S'\x90p\xc5o\xee\x13\x13@'
p2135
tp2136
Rp2137
ag4
(g8
S'\x90p\xc5o\xee\x13\x13@'
p2138
tp2139
Rp2140
ag4
(g8
S'\x90p\xc5o\xee\x13\x13@'
p2141
tp2142
Rp2143
ag4
(g8
S'\x90p\xc5o\xee\x13\x13@'
p2144
tp2145
Rp2146
ag4
(g8
S'\x90p\xc5o\xee\x13\x13@'
p2147
tp2148
Rp2149
ag4
(g8
S'\xde\x06\xe1\x8c\x82\xbc\xf7\xbf'
p2150
tp2151
Rp2152
ag4
(g8
S'5\x19\x0f\xb4\xc5\x8f\xf6\xbf'
p2153
tp2154
Rp2155
ag4
(g8
S'\x8c+=\xdb\x08c\xf5\xbf'
p2156
tp2157
Rp2158
ag4
(g8
S'\xd0\x08qsK6\xf4\xbf'
p2159
tp2160
Rp2161
ag4
(g8
S':P\x99)\x8f\t\xf3\xbf'
p2162
tp2163
Rp2164
ag4
(g8
S'\x07HJ\t\xd2\xdc\xf1\xbf'
p2165
tp2166
Rp2167
ag4
(g8
S'^Zx0\x15\xb0\xf0\xbf'
p2168
tp2169
Rp2170
ag4
(g8
S'X\xa4R \xb0\x06\xef\xbf'
p2171
tp2172
Rp2173
ag4
(g8
S'\x18\xfe\xa8\xfd6\xad\xec\xbf'
p2174
tp2175
Rp2176
ag4
(g8
S'\xc6"\x05L\xbdS\xea\xbf'
p2177
tp2178
Rp2179
ag4
(g8
S'a\x12g\x0bC\xfa\xe7\xbf'
p2180
tp2181
Rp2182
ag4
(g8
S'!l\xbd\xe8\xc9\xa0\xe5\xbf'
p2183
tp2184
Rp2185
ag4
(g8
S'\xbd[\x1f\xa8OG\xe3\xbf'
p2186
tp2187
Rp2188
ag4
(g8
S'}\xb5u\x85\xd6\xed\xe0\xbf'
p2189
tp2190
Rp2191
ag4
(g8
S'0J\xaf\x89\xb8(\xdd\xbf'
p2192
tp2193
Rp2194
ag4
(g8
S'\x8c\x93g&\xc5u\xd8\xbf'
p2195
tp2196
Rp2197
ag4
(g8
S'\xe7\xdc\x1f\xc3\xd1\xc2\xd3\xbf'
p2198
tp2199
Rp2200
ag4
(g8
S'\x86L\xb0\xbf\xbc\x1f\xce\xbf'
p2201
tp2202
Rp2203
ag4
(g8
S'=\xdf \xf9\xd5\xb9\xc4\xbf'
p2204
tp2205
Rp2206
ag4
(g8
S'\xe8\xe3"e\xde\xa7\xb6\xbf'
p2207
tp2208
Rp2209
ag4
(g8
S'\x0b\x06\x93\x01c\xe0\x8e\xbf'
p2210
tp2211
Rp2212
ag4
(g8
S'\x93[\x96Gb\xba\x99?'
p2213
tp2214
Rp2215
ag4
(g8
S'\x93[\x96Gb\xba\x99?'
p2216
tp2217
Rp2218
ag4
(g8
S'\x93[\x96Gb\xba\x99?'
p2219
tp2220
Rp2221
ag4
(g8
S'\x93[\x96Gb\xba\x99?'
p2222
tp2223
Rp2224
ag4
(g8
S'\x93[\x96Gb\xba\x99?'
p2225
tp2226
Rp2227
ag4
(g8
S'\x93[\x96Gb\xba\x99?'
p2228
tp2229
Rp2230
ag4
(g8
S'\x93[\x96Gb\xba\x99?'
p2231
tp2232
Rp2233
ag4
(g8
S'\x93[\x96Gb\xba\x99?'
p2234
tp2235
Rp2236
ag4
(g8
S'\x93[\x96Gb\xba\x99?'
p2237
tp2238
Rp2239
ag4
(g8
S'\x93[\x96Gb\xba\x99?'
p2240
tp2241
Rp2242
ag4
(g8
S'\x93[\x96Gb\xba\x99?'
p2243
tp2244
Rp2245
ag4
(g8
S'\x93[\x96Gb\xba\x99?'
p2246
tp2247
Rp2248
ag4
(g8
S'\x93[\x96Gb\xba\x99?'
p2249
tp2250
Rp2251
ag4
(g8
S'\x93[\x96Gb\xba\x99?'
p2252
tp2253
Rp2254
ag4
(g8
S'\x93[\x96Gb\xba\x99?'
p2255
tp2256
Rp2257
ag4
(g8
S'\x93[\x96Gb\xba\x99?'
p2258
tp2259
Rp2260
ag4
(g8
S'\x93[\x96Gb\xba\x99?'
p2261
tp2262
Rp2263
ag4
(g8
S'\x93[\x96Gb\xba\x99?'
p2264
tp2265
Rp2266
ag4
(g8
S'\x93[\x96Gb\xba\x99?'
p2267
tp2268
Rp2269
ag4
(g8
S'\x93[\x96Gb\xba\x99?'
p2270
tp2271
Rp2272
ag4
(g8
S'\x93[\x96Gb\xba\x99?'
p2273
tp2274
Rp2275
ag4
(g8
S'\x93[\x96Gb\xba\x99?'
p2276
tp2277
Rp2278
ag4
(g8
S'\x93[\x96Gb\xba\x99?'
p2279
tp2280
Rp2281
ag4
(g8
S'\x93[\x96Gb\xba\x99?'
p2282
tp2283
Rp2284
ag4
(g8
S'\x93[\x96Gb\xba\x99?'
p2285
tp2286
Rp2287
ag4
(g8
S'\x93[\x96Gb\xba\x99?'
p2288
tp2289
Rp2290
ag4
(g8
S'\x93[\x96Gb\xba\x99?'
p2291
tp2292
Rp2293
ag4
(g8
S'\x93[\x96Gb\xba\x99?'
p2294
tp2295
Rp2296
ag4
(g8
S'\x93[\x96Gb\xba\x99?'
p2297
tp2298
Rp2299
ag4
(g8
S'\x93[\x96Gb\xba\x99?'
p2300
tp2301
Rp2302
ag4
(g8
S'\x93[\x96Gb\xba\x99?'
p2303
tp2304
Rp2305
ag4
(g8
S'\x93[\x96Gb\xba\x99?'
p2306
tp2307
Rp2308
ag4
(g8
S'\x93[\x96Gb\xba\x99?'
p2309
tp2310
Rp2311
ag4
(g8
S'\x93[\x96Gb\xba\x99?'
p2312
tp2313
Rp2314
ag4
(g8
S'\x93[\x96Gb\xba\x99?'
p2315
tp2316
Rp2317
ag4
(g8
S'\x93[\x96Gb\xba\x99?'
p2318
tp2319
Rp2320
ag4
(g8
S'\x93[\x96Gb\xba\x99?'
p2321
tp2322
Rp2323
ag4
(g8
S'\x93[\x96Gb\xba\x99?'
p2324
tp2325
Rp2326
ag4
(g8
S'\x93[\x96Gb\xba\x99?'
p2327
tp2328
Rp2329
ag4
(g8
S'\x93[\x96Gb\xba\x99?'
p2330
tp2331
Rp2332
ag4
(g8
S'\x93[\x96Gb\xba\x99?'
p2333
tp2334
Rp2335
ag4
(g8
S'\x93[\x96Gb\xba\x99?'
p2336
tp2337
Rp2338
ag4
(g8
S'\x93[\x96Gb\xba\x99?'
p2339
tp2340
Rp2341
ag4
(g8
S'\x93[\x96Gb\xba\x99?'
p2342
tp2343
Rp2344
ag4
(g8
S'\x93[\x96Gb\xba\x99?'
p2345
tp2346
Rp2347
ag4
(g8
S'\x93[\x96Gb\xba\x99?'
p2348
tp2349
Rp2350
ag4
(g8
S'\x93[\x96Gb\xba\x99?'
p2351
tp2352
Rp2353
ag4
(g8
S'\x93[\x96Gb\xba\x99?'
p2354
tp2355
Rp2356
ag4
(g8
S'\x93[\x96Gb\xba\x99?'
p2357
tp2358
Rp2359
ag4
(g8
S'\x93[\x96Gb\xba\x99?'
p2360
tp2361
Rp2362
ag4
(g8
S'\x93[\x96Gb\xba\x99?'
p2363
tp2364
Rp2365
ag4
(g8
S'\x93[\x96Gb\xba\x99?'
p2366
tp2367
Rp2368
ag4
(g8
S'\x93[\x96Gb\xba\x99?'
p2369
tp2370
Rp2371
ag4
(g8
S'\x93[\x96Gb\xba\x99?'
p2372
tp2373
Rp2374
ag4
(g8
S'\x93[\x96Gb\xba\x99?'
p2375
tp2376
Rp2377
ag4
(g8
S'\x93[\x96Gb\xba\x99?'
p2378
tp2379
Rp2380
ag4
(g8
S'\x93[\x96Gb\xba\x99?'
p2381
tp2382
Rp2383
ag4
(g8
S'\x93[\x96Gb\xba\x99?'
p2384
tp2385
Rp2386
ag4
(g8
S'\x93[\x96Gb\xba\x99?'
p2387
tp2388
Rp2389
ag4
(g8
S'\x93[\x96Gb\xba\x99?'
p2390
tp2391
Rp2392
ag4
(g8
S'\x93[\x96Gb\xba\x99?'
p2393
tp2394
Rp2395
ag4
(g8
S'\x93[\x96Gb\xba\x99?'
p2396
tp2397
Rp2398
ag4
(g8
S'\x93[\x96Gb\xba\x99?'
p2399
tp2400
Rp2401
ag4
(g8
S'\x93[\x96Gb\xba\x99?'
p2402
tp2403
Rp2404
ag4
(g8
S'\x93[\x96Gb\xba\x99?'
p2405
tp2406
Rp2407
ag4
(g8
S'\x93[\x96Gb\xba\x99?'
p2408
tp2409
Rp2410
ag4
(g8
S'\x93[\x96Gb\xba\x99?'
p2411
tp2412
Rp2413
ag4
(g8
S'\x93[\x96Gb\xba\x99?'
p2414
tp2415
Rp2416
ag4
(g8
S'\x93[\x96Gb\xba\x99?'
p2417
tp2418
Rp2419
ag4
(g8
S'\x93[\x96Gb\xba\x99?'
p2420
tp2421
Rp2422
ag4
(g8
S'\x93[\x96Gb\xba\x99?'
p2423
tp2424
Rp2425
ag4
(g8
S'\x93[\x96Gb\xba\x99?'
p2426
tp2427
Rp2428
ag4
(g8
S'\x93[\x96Gb\xba\x99?'
p2429
tp2430
Rp2431
ag4
(g8
S'\x93[\x96Gb\xba\x99?'
p2432
tp2433
Rp2434
ag4
(g8
S'\x93[\x96Gb\xba\x99?'
p2435
tp2436
Rp2437
ag4
(g8
S'\x93[\x96Gb\xba\x99?'
p2438
tp2439
Rp2440
ag4
(g8
S'\x93[\x96Gb\xba\x99?'
p2441
tp2442
Rp2443
ag4
(g8
S'\x93[\x96Gb\xba\x99?'
p2444
tp2445
Rp2446
ag4
(g8
S'\x93[\x96Gb\xba\x99?'
p2447
tp2448
Rp2449
ag4
(g8
S'\x93[\x96Gb\xba\x99?'
p2450
tp2451
Rp2452
ag4
(g8
S'\x93[\x96Gb\xba\x99?'
p2453
tp2454
Rp2455
ag4
(g8
S'\x93[\x96Gb\xba\x99?'
p2456
tp2457
Rp2458
ag4
(g8
S'\x93[\x96Gb\xba\x99?'
p2459
tp2460
Rp2461
ag4
(g8
S'\x93[\x96Gb\xba\x99?'
p2462
tp2463
Rp2464
ag4
(g8
S'\x93[\x96Gb\xba\x99?'
p2465
tp2466
Rp2467
ag4
(g8
S'\x93[\x96Gb\xba\x99?'
p2468
tp2469
Rp2470
ag4
(g8
S'\x93[\x96Gb\xba\x99?'
p2471
tp2472
Rp2473
ag4
(g8
S'\x93[\x96Gb\xba\x99?'
p2474
tp2475
Rp2476
ag4
(g8
S'\x93[\x96Gb\xba\x99?'
p2477
tp2478
Rp2479
ag4
(g8
S'\x93[\x96Gb\xba\x99?'
p2480
tp2481
Rp2482
ag4
(g8
S'\x93[\x96Gb\xba\x99?'
p2483
tp2484
Rp2485
ag4
(g8
S'\x93[\x96Gb\xba\x99?'
p2486
tp2487
Rp2488
ag4
(g8
S'\x93[\x96Gb\xba\x99?'
p2489
tp2490
Rp2491
ag4
(g8
S'\x93[\x96Gb\xba\x99?'
p2492
tp2493
Rp2494
ag4
(g8
S'\x93[\x96Gb\xba\x99?'
p2495
tp2496
Rp2497
ag4
(g8
S'\x93[\x96Gb\xba\x99?'
p2498
tp2499
Rp2500
ag4
(g8
S'\x1aP\x1d\xe0@\x08\x19\xc0'
p2501
tp2502
Rp2503
ag4
(g8
S'\x93[\x96Gb\xba\x99?'
p2504
tp2505
Rp2506
ag4
(g8
S'\x16\xbc\x9692k\xa5\xbf'
p2507
tp2508
Rp2509
ag4
(g8
S'y\x15\xdf\x96w\xaa\xc2\xbf'
p2510
tp2511
Rp2512
ag4
(g8
S"Y\xd3\x86'\x1e\xfa\xcf\xbf"
p2513
tp2514
Rp2515
ag4
(g8
S'\xe6\x1c\x00\x98\xe4\xa4\xd6\xbf'
p2516
tp2517
Rp2518
ag4
(g8
S'?\x88P?\xcdY\xd9\xbf'
p2519
tp2520
Rp2521
ag4
(g8
S'{\xb4\x97U\xe0\x13\xd3\xbf'
p2522
tp2523
Rp2524
ag4
(g8
S'!\xed\xd4\x9b\xe4\x9b\xc9\xbf'
p2525
tp2526
Rp2527
ag4
(g8
S'/\x8b\xc6\x90\x15 \xba\xbf'
p2528
tp2529
Rp2530
ag4
(g8
S'\xbd\xc13\x9e\x1e\x86p\xbf'
p2531
tp2532
Rp2533
ag4
(g8
S'\x00\x00\x00\x00\x00\x00\x00\x00'
p2534
tp2535
Rp2536
ag4
(g8
S'\x00\x00\x00\x00\x00\x00\x00\x00'
p2537
tp2538
Rp2539
ag4
(g8
S'\x00\x00\x00\x00\x00\x00\x00\x80'
p2540
tp2541
Rp2542
ag4
(g8
S'\x00\x00\x00\x00\x00\x00\x00\x80'
p2543
tp2544
Rp2545
ag4
(g8
S'\x00\x00\x00\x00\x00\x00\x00\x80'
p2546
tp2547
Rp2548
ag4
(g8
S'\x00\x00\x00\x00\x00\x00\x00\x80'
p2549
tp2550
Rp2551
ag4
(g8
S'\x00\x00\x00\x00\x00\x00\x00\x80'
p2552
tp2553
Rp2554
ag4
(g8
S'\x00\x00\x00\x00\x00\x00\x00\x80'
p2555
tp2556
Rp2557
ag4
(g8
S'\x00\x00\x00\x00\x00\x00\x00\x80'
p2558
tp2559
Rp2560
ag4
(g8
S'\x00\x00\x00\x00\x00\x00\x00\x80'
p2561
tp2562
Rp2563
ag4
(g8
S'\x00\x00\x00\x00\x00\x00\x00\x80'
p2564
tp2565
Rp2566
ag4
(g8
S'\x00\x00\x00\x00\x00\x00\x00\x80'
p2567
tp2568
Rp2569
ag4
(g8
S'\x00\x00\x00\x00\x00\x00\x00\x80'
p2570
tp2571
Rp2572
ag4
(g8
S'\x00\x00\x00\x00\x00\x00\x00\x80'
p2573
tp2574
Rp2575
ag4
(g8
S'\x00\x00\x00\x00\x00\x00\x00\x80'
p2576
tp2577
Rp2578
ag4
(g8
S'\x00\x00\x00\x00\x00\x00\x00\x80'
p2579
tp2580
Rp2581
ag4
(g8
S'\x00\x00\x00\x00\x00\x00\x00\x80'
p2582
tp2583
Rp2584
ag4
(g8
S'\x00\x00\x00\x00\x00\x00\x00\x80'
p2585
tp2586
Rp2587
ag4
(g8
S'G\xc7\xe3\x04\xbb\xd5\x95?'
p2588
tp2589
Rp2590
ag4
(g8
S'@\xb6p\xb7\x0e\x99\xb2?'
p2591
tp2592
Rp2593
ag4
(g8
S'\x18J\xfa\x80\xae\xbc\xbf?'
p2594
tp2595
Rp2596
ag4
(g8
S"\xf8\xeeA%'p\xc6?"
p2597
tp2598
Rp2599
ag4
(g8
S'\x86\xff\xe5\x1b\xf7\x01\xcd?'
p2600
tp2601
Rp2602
ag4
(g8
S'\n\x08E\x89\xe3\xc9\xd1?'
p2603
tp2604
Rp2605
ag4
(g8
S'\xaf\xc9\xb7r\xcb\x12\xd5?'
p2606
tp2607
Rp2608
ag4
(g8
S'\xf6\xd1\tn\xb3[\xd8?'
p2609
tp2610
Rp2611
ag4
(g8
S'>\xda[i\x9b\xa4\xdb?'
p2612
tp2613
Rp2614
ag4
(g8
S'\x85\xe2\xadd\x83\xed\xde?'
p2615
tp2616
Rp2617
ag4
(g8
S'f\xf5\xff\xaf5\x1b\xe1?'
p2618
tp2619
Rp2620
ag4
(g8
S',@\x88\xbf\xa9\xbf\xe2?'
p2621
tp2622
Rp2623
ag4
(g8
S'PD1\xbd\x1dd\xe4?'
p2624
tp2625
Rp2626
ag4
(g8
S'sH\xda\xba\x91\x08\xe6?'
p2627
tp2628
Rp2629
ag4
(g8
S'\x97L\x83\xb8\x05\xad\xe7?'
p2630
tp2631
Rp2632
ag4
(g8
S'v\xc3m\x92yQ\xe9?'
p2633
tp2634
Rp2635
ag4
(g8
S'\x99\xc7\x16\x90\xed\xf5\xea?'
p2636
tp2637
Rp2638
ag4
(g8
S'\xbd\xcb\xbf\x8da\x9a\xec?'
p2639
tp2640
Rp2641
ag4
(g8
S'\xe0\xcfh\x8b\xd5>\xee?'
p2642
tp2643
Rp2644
ag4
(g8
S'\x04\xd4\x11\x89I\xe3\xef?'
p2645
tp2646
Rp2647
ag4
(g8
S'q%~\xb1\xde\xc3\xf0?'
p2648
tp2649
Rp2650
ag4
(g8
S'\xe8\xe5B\x8bds\xf1?'
p2651
tp2652
Rp2653
ag4
(g8
S'\x08\xed\x1f\n\x8e\xce\xf1?'
p2654
tp2655
Rp2656
ag4
(g8
S'(\xf4\xfc\x88\xb7)\xf2?'
p2657
tp2658
Rp2659
ag4
(g8
S'\xeaA\xb9\x19\xe1\x84\xf2?'
p2660
tp2661
Rp2662
ag4
(g8
S'g\x02\xb7\x86\n\xe0\xf2?'
p2663
tp2664
Rp2665
ag4
(g8
S'\xe4\xc2\xb4\xf33;\xf3?'
p2666
tp2667
Rp2668
ag4
(g8
S'a\x83\xb2`]\x96\xf3?'
p2669
tp2670
Rp2671
ag4
(g8
S'#\xd1n\xf1\x86\xf1\xf3?'
p2672
tp2673
Rp2674
ag4
(g8
S'\xa1\x91l^\xb0L\xf4?'
p2675
tp2676
Rp2677
ag4
(g8
S'c\xdf(\xef\xd9\xa7\xf4?'
p2678
tp2679
Rp2680
ag4
(g8
S'\xe0\x9f&\\\x03\x03\xf5?'
p2681
tp2682
Rp2683
ag4
(g8
S'\xa2\xed\xe2\xec,^\xf5?'
p2684
tp2685
Rp2686
ag4
(g8
S'd;\x9f}V\xb9\xf5?'
p2687
tp2688
Rp2689
ag4
(g8
S'\xe1\xfb\x9c\xea\x7f\x14\xf6?'
p2690
tp2691
Rp2692
ag4
(g8
S'\xa3IY{\xa9o\xf6?'
p2693
tp2694
Rp2695
ag4
(g8
S' \nW\xe8\xd2\xca\xf6?'
p2696
tp2697
Rp2698
ag4
(g8
S'\xe2W\x13y\xfc%\xf7?'
p2699
tp2700
Rp2701
ag4
(g8
S'`\x18\x11\xe6%\x81\xf7?'
p2702
tp2703
Rp2704
ag4
(g8
S'\xdd\xd8\x0eSO\xdc\xf7?'
p2705
tp2706
Rp2707
ag4
(g8
S'Z\x99\x0c\xc0x7\xf8?'
p2708
tp2709
Rp2710
ag4
(g8
S'\x1c\xe7\xc8P\xa2\x92\xf8?'
p2711
tp2712
Rp2713
ag4
(g8
S'\x99\xa7\xc6\xbd\xcb\xed\xf8?'
p2714
tp2715
Rp2716
ag4
(g8
S'[\xf5\x82N\xf5H\xf9?'
p2717
tp2718
Rp2719
ag4
(g8
S'E\x9d\xc1~\x94\x85\xf9?'
p2720
tp2721
Rp2722
ag4
(g8
S'E\x9d\xc1~\x94\x85\xf9?'
p2723
tp2724
Rp2725
ag4
(g8
S'E\x9d\xc1~\x94\x85\xf9?'
p2726
tp2727
Rp2728
ag4
(g8
S'E\x9d\xc1~\x94\x85\xf9?'
p2729
tp2730
Rp2731
ag4
(g8
S'E\x9d\xc1~\x94\x85\xf9?'
p2732
tp2733
Rp2734
ag4
(g8
S'E\x9d\xc1~\x94\x85\xf9?'
p2735
tp2736
Rp2737
ag4
(g8
S'E\x9d\xc1~\x94\x85\xf9?'
p2738
tp2739
Rp2740
ag4
(g8
S'E\x9d\xc1~\x94\x85\xf9?'
p2741
tp2742
Rp2743
ag4
(g8
S'E\x9d\xc1~\x94\x85\xf9?'
p2744
tp2745
Rp2746
ag4
(g8
S'E\x9d\xc1~\x94\x85\xf9?'
p2747
tp2748
Rp2749
ag4
(g8
S'E\x9d\xc1~\x94\x85\xf9?'
p2750
tp2751
Rp2752
ag4
(g8
S'E\x9d\xc1~\x94\x85\xf9?'
p2753
tp2754
Rp2755
ag4
(g8
S'E\x9d\xc1~\x94\x85\xf9?'
p2756
tp2757
Rp2758
ag4
(g8
S'E\x9d\xc1~\x94\x85\xf9?'
p2759
tp2760
Rp2761
ag4
(g8
S'E\x9d\xc1~\x94\x85\xf9?'
p2762
tp2763
Rp2764
ag4
(g8
S'E\x9d\xc1~\x94\x85\xf9?'
p2765
tp2766
Rp2767
ag4
(g8
S'E\x9d\xc1~\x94\x85\xf9?'
p2768
tp2769
Rp2770
ag4
(g8
S'E\x9d\xc1~\x94\x85\xf9?'
p2771
tp2772
Rp2773
ag4
(g8
S'E\x9d\xc1~\x94\x85\xf9?'
p2774
tp2775
Rp2776
ag4
(g8
S'E\x9d\xc1~\x94\x85\xf9?'
p2777
tp2778
Rp2779
ag4
(g8
S'E\x9d\xc1~\x94\x85\xf9?'
p2780
tp2781
Rp2782
ag4
(g8
S'E\x9d\xc1~\x94\x85\xf9?'
p2783
tp2784
Rp2785
ag4
(g8
S'E\x9d\xc1~\x94\x85\xf9?'
p2786
tp2787
Rp2788
ag4
(g8
S'E\x9d\xc1~\x94\x85\xf9?'
p2789
tp2790
Rp2791
ag4
(g8
S'E\x9d\xc1~\x94\x85\xf9?'
p2792
tp2793
Rp2794
ag4
(g8
S'E\x9d\xc1~\x94\x85\xf9?'
p2795
tp2796
Rp2797
ag4
(g8
S'E\x9d\xc1~\x94\x85\xf9?'
p2798
tp2799
Rp2800
ag4
(g8
S'E\x9d\xc1~\x94\x85\xf9?'
p2801
tp2802
Rp2803
ag4
(g8
S'E\x9d\xc1~\x94\x85\xf9?'
p2804
tp2805
Rp2806
ag4
(g8
S'E\x9d\xc1~\x94\x85\xf9?'
p2807
tp2808
Rp2809
ag4
(g8
S'E\x9d\xc1~\x94\x85\xf9?'
p2810
tp2811
Rp2812
ag4
(g8
S'E\x9d\xc1~\x94\x85\xf9?'
p2813
tp2814
Rp2815
ag4
(g8
S'E\x9d\xc1~\x94\x85\xf9?'
p2816
tp2817
Rp2818
ag4
(g8
S'E\x9d\xc1~\x94\x85\xf9?'
p2819
tp2820
Rp2821
ag4
(g8
S'E\x9d\xc1~\x94\x85\xf9?'
p2822
tp2823
Rp2824
ag4
(g8
S'E\x9d\xc1~\x94\x85\xf9?'
p2825
tp2826
Rp2827
ag4
(g8
S'E\x9d\xc1~\x94\x85\xf9?'
p2828
tp2829
Rp2830
ag4
(g8
S'E\x9d\xc1~\x94\x85\xf9?'
p2831
tp2832
Rp2833
ag4
(g8
S'E\x9d\xc1~\x94\x85\xf9?'
p2834
tp2835
Rp2836
ag4
(g8
S'E\x9d\xc1~\x94\x85\xf9?'
p2837
tp2838
Rp2839
ag4
(g8
S'E\x9d\xc1~\x94\x85\xf9?'
p2840
tp2841
Rp2842
ag4
(g8
S'E\x9d\xc1~\x94\x85\xf9?'
p2843
tp2844
Rp2845
ag4
(g8
S'E\x9d\xc1~\x94\x85\xf9?'
p2846
tp2847
Rp2848
ag4
(g8
S'E\x9d\xc1~\x94\x85\xf9?'
p2849
tp2850
Rp2851
ag4
(g8
S'E\x9d\xc1~\x94\x85\xf9?'
p2852
tp2853
Rp2854
ag4
(g8
S'E\x9d\xc1~\x94\x85\xf9?'
p2855
tp2856
Rp2857
ag4
(g8
S'E\x9d\xc1~\x94\x85\xf9?'
p2858
tp2859
Rp2860
ag4
(g8
S'E\x9d\xc1~\x94\x85\xf9?'
p2861
tp2862
Rp2863
ag4
(g8
S'E\x9d\xc1~\x94\x85\xf9?'
p2864
tp2865
Rp2866
ag4
(g8
S'E\x9d\xc1~\x94\x85\xf9?'
p2867
tp2868
Rp2869
ag4
(g8
S'E\x9d\xc1~\x94\x85\xf9?'
p2870
tp2871
Rp2872
ag4
(g8
S'E\x9d\xc1~\x94\x85\xf9?'
p2873
tp2874
Rp2875
ag4
(g8
S'E\x9d\xc1~\x94\x85\xf9?'
p2876
tp2877
Rp2878
ag4
(g8
S'E\x9d\xc1~\x94\x85\xf9?'
p2879
tp2880
Rp2881
ag4
(g8
S'E\x9d\xc1~\x94\x85\xf9?'
p2882
tp2883
Rp2884
ag4
(g8
S'E\x9d\xc1~\x94\x85\xf9?'
p2885
tp2886
Rp2887
ag4
(g8
S'E\x9d\xc1~\x94\x85\xf9?'
p2888
tp2889
Rp2890
ag4
(g8
S'E\x9d\xc1~\x94\x85\xf9?'
p2891
tp2892
Rp2893
ag4
(g8
S'E\x9d\xc1~\x94\x85\xf9?'
p2894
tp2895
Rp2896
ag4
(g8
S'E\x9d\xc1~\x94\x85\xf9?'
p2897
tp2898
Rp2899
ag4
(g8
S'E\x9d\xc1~\x94\x85\xf9?'
p2900
tp2901
Rp2902
ag4
(g8
S'\xe0\xf1\xf5\xfe\x95\xc0\x12\xc0'
p2903
tp2904
Rp2905
ag4
(g8
S'\xe0\xf1\xf5\xfe\x95\xc0\x12\xc0'
p2906
tp2907
Rp2908
ag4
(g8
S'\xe0\xf1\xf5\xfe\x95\xc0\x12\xc0'
p2909
tp2910
Rp2911
ag4
(g8
S'\xe0\xf1\xf5\xfe\x95\xc0\x12\xc0'
p2912
tp2913
Rp2914
ag4
(g8
S'\xe0\xf1\xf5\xfe\x95\xc0\x12\xc0'
p2915
tp2916
Rp2917
ag4
(g8
S'\xe0\xf1\xf5\xfe\x95\xc0\x12\xc0'
p2918
tp2919
Rp2920
ag4
(g8
S'\xe0\xf1\xf5\xfe\x95\xc0\x12\xc0'
p2921
tp2922
Rp2923
ag4
(g8
S'\xe0\xf1\xf5\xfe\x95\xc0\x12\xc0'
p2924
tp2925
Rp2926
ag4
(g8
S'\xe0\xf1\xf5\xfe\x95\xc0\x12\xc0'
p2927
tp2928
Rp2929
ag4
(g8
S'\xe0\xf1\xf5\xfe\x95\xc0\x12\xc0'
p2930
tp2931
Rp2932
ag4
(g8
S'\xe0\xf1\xf5\xfe\x95\xc0\x12\xc0'
p2933
tp2934
Rp2935
ag4
(g8
S'\xe0\xf1\xf5\xfe\x95\xc0\x12\xc0'
p2936
tp2937
Rp2938
ag4
(g8
S'\xe0\xf1\xf5\xfe\x95\xc0\x12\xc0'
p2939
tp2940
Rp2941
ag4
(g8
S'\xe0\xf1\xf5\xfe\x95\xc0\x12\xc0'
p2942
tp2943
Rp2944
ag4
(g8
S'\xe0\xf1\xf5\xfe\x95\xc0\x12\xc0'
p2945
tp2946
Rp2947
ag4
(g8
S'\xe0\xf1\xf5\xfe\x95\xc0\x12\xc0'
p2948
tp2949
Rp2950
ag4
(g8
S'\xe0\xf1\xf5\xfe\x95\xc0\x12\xc0'
p2951
tp2952
Rp2953
ag4
(g8
S'\xe0\xf1\xf5\xfe\x95\xc0\x12\xc0'
p2954
tp2955
Rp2956
ag4
(g8
S'\xe0\xf1\xf5\xfe\x95\xc0\x12\xc0'
p2957
tp2958
Rp2959
ag4
(g8
S'E\x9d\xc1~\x94\x85\xf9?'
p2960
tp2961
Rp2962
ag4
(g8
S'E\x9d\xc1~\x94\x85\xf9?'
p2963
tp2964
Rp2965
ag4
(g8
S'E\x9d\xc1~\x94\x85\xf9?'
p2966
tp2967
Rp2968
ag4
(g8
S'E\x9d\xc1~\x94\x85\xf9?'
p2969
tp2970
Rp2971
ag4
(g8
S'E\x9d\xc1~\x94\x85\xf9?'
p2972
tp2973
Rp2974
ag4
(g8
S'E\x9d\xc1~\x94\x85\xf9?'
p2975
tp2976
Rp2977
ag4
(g8
S'E\x9d\xc1~\x94\x85\xf9?'
p2978
tp2979
Rp2980
ag4
(g8
S'E\x9d\xc1~\x94\x85\xf9?'
p2981
tp2982
Rp2983
ag4
(g8
S'E\x9d\xc1~\x94\x85\xf9?'
p2984
tp2985
Rp2986
ag4
(g8
S'E\x9d\xc1~\x94\x85\xf9?'
p2987
tp2988
Rp2989
ag4
(g8
S'\xe0\xf1\xf5\xfe\x95\xc0\x12\xc0'
p2990
tp2991
Rp2992
ag4
(g8
S'\xe0\xf1\xf5\xfe\x95\xc0\x12\xc0'
p2993
tp2994
Rp2995
ag4
(g8
S'\xe0\xf1\xf5\xfe\x95\xc0\x12\xc0'
p2996
tp2997
Rp2998
ag4
(g8
S'\xe0\xf1\xf5\xfe\x95\xc0\x12\xc0'
p2999
tp3000
Rp3001
ag4
(g8
S'\xe0\xf1\xf5\xfe\x95\xc0\x12\xc0'
p3002
tp3003
Rp3004
ag4
(g8
S'\xe0\xf1\xf5\xfe\x95\xc0\x12\xc0'
p3005
tp3006
Rp3007
ag4
(g8
S'\xe0\xf1\xf5\xfe\x95\xc0\x12\xc0'
p3008
tp3009
Rp3010
ag4
(g8
S'\xe0\xf1\xf5\xfe\x95\xc0\x12\xc0'
p3011
tp3012
Rp3013
aa.